LX51 LINKER/LOCATER V4.66.30.0                                                          11/13/2019  15:40:31  PAGE 1


LX51 LINKER/LOCATER V4.66.30.0, INVOKED BY:
D:\SIMPLICITYSTDIO\DEVELOPER\TOOLCHAINS\KEIL_8051\9.53\BIN\LX51.EXE ./src/EFM8SB1_SleepMode_PortMatchWake.OBJ, ./src/Ini
>> tDevice.OBJ, ./src/Interrupts.OBJ, ./src/SILABS_STARTUP.OBJ, ./src/SmaRTClock.OBJ, ./src/power.OBJ TO ELMOS1_BEETEST.
>> OMF.CRBUILD REMOVEUNUSED PRINT (.\elmos1_beetest.m51) PAGEWIDTH (120) PAGELENGTH (65) CLASSES (CODE (C:0X0-C:0X1FFE),
>>  CONST (C:0X0-C:0X1FFE), ECODE (C:0X0-C:0X1FFE), HCONST (C:0X0-C:0X1FFE), XDATA (X:0X0-X:0XFF), HDATA (X:0X0-X:0XFF))
>> 


CPU MODE:     8051 MODE
MEMORY MODEL: SMALL


INPUT MODULES INCLUDED:
  ./src/EFM8SB1_SleepMode_PortMatchWake.OBJ (EFM8SB1_SLEEPMODE_PORTMATCHWAKE)
         COMMENT TYPE 0: C51 V9.53.0.0
  ./src/InitDevice.OBJ (INITDEVICE)
         COMMENT TYPE 0: C51 V9.53.0.0
  ./src/Interrupts.OBJ (INTERRUPTS)
         COMMENT TYPE 0: C51 V9.53.0.0
  ./src/SILABS_STARTUP.OBJ (?C_STARTUP)
         COMMENT TYPE 0: AX51 V3.12.0.0
  ./src/SmaRTClock.OBJ (SMARTCLOCK)
         COMMENT TYPE 0: C51 V9.53.0.0
  ./src/power.OBJ (POWER)
         COMMENT TYPE 0: C51 V9.53.0.0
  D:\SIMPLICITYSTDIO\DEVELOPER\TOOLCHAINS\KEIL_8051\9.53\LIB\C51S.LIB (?C_INIT)
         COMMENT TYPE 1: A51 / ASM51 Assembler
  D:\SIMPLICITYSTDIO\DEVELOPER\TOOLCHAINS\KEIL_8051\9.53\LIB\C51S.LIB (?C?COPY)
         COMMENT TYPE 1: A51 / ASM51 Assembler
  D:\SIMPLICITYSTDIO\DEVELOPER\TOOLCHAINS\KEIL_8051\9.53\LIB\C51S.LIB (?C?CLDPTR)
         COMMENT TYPE 1: A51 / ASM51 Assembler
  D:\SIMPLICITYSTDIO\DEVELOPER\TOOLCHAINS\KEIL_8051\9.53\LIB\C51S.LIB (?C?CLDOPTR)
         COMMENT TYPE 1: A51 / ASM51 Assembler
  D:\SIMPLICITYSTDIO\DEVELOPER\TOOLCHAINS\KEIL_8051\9.53\LIB\C51S.LIB (?C?CSTPTR)
         COMMENT TYPE 1: A51 / ASM51 Assembler
  D:\SIMPLICITYSTDIO\DEVELOPER\TOOLCHAINS\KEIL_8051\9.53\LIB\C51S.LIB (?C?CSTOPTR)
         COMMENT TYPE 1: A51 / ASM51 Assembler
  D:\SIMPLICITYSTDIO\DEVELOPER\TOOLCHAINS\KEIL_8051\9.53\LIB\C51S.LIB (?C?IMUL)
         COMMENT TYPE 1: A51 / ASM51 Assembler
  D:\SIMPLICITYSTDIO\DEVELOPER\TOOLCHAINS\KEIL_8051\9.53\LIB\C51S.LIB (?C?SIDIV)
         COMMENT TYPE 1: A51 / ASM51 Assembler
  D:\SIMPLICITYSTDIO\DEVELOPER\TOOLCHAINS\KEIL_8051\9.53\LIB\C51S.LIB (?C?LMUL)
         COMMENT TYPE 1: A51 / ASM51 Assembler
  D:\SIMPLICITYSTDIO\DEVELOPER\TOOLCHAINS\KEIL_8051\9.53\LIB\C51S.LIB (?C?SLDIV)
         COMMENT TYPE 1: A51 / ASM51 Assembler
  D:\SIMPLICITYSTDIO\DEVELOPER\TOOLCHAINS\KEIL_8051\9.53\LIB\C51S.LIB (?C?SLCMP)
         COMMENT TYPE 1: A51 / ASM51 Assembler
  D:\SIMPLICITYSTDIO\DEVELOPER\TOOLCHAINS\KEIL_8051\9.53\LIB\C51S.LIB (?C?SLSHR)
         COMMENT TYPE 1: A51 / ASM51 Assembler
  D:\SIMPLICITYSTDIO\DEVELOPER\TOOLCHAINS\KEIL_8051\9.53\LIB\C51S.LIB (?C?CCASE)
         COMMENT TYPE 1: A51 / ASM51 Assembler
  D:\SIMPLICITYSTDIO\DEVELOPER\TOOLCHAINS\KEIL_8051\9.53\LIB\C51S.LIB (?C?UIDIV)
         COMMENT TYPE 1: A51 / ASM51 Assembler
  D:\SIMPLICITYSTDIO\DEVELOPER\TOOLCHAINS\KEIL_8051\9.53\LIB\C51S.LIB (?C?ULDIV)
         COMMENT TYPE 1: A51 / ASM51 Assembler


ACTIVE MEMORY CLASSES OF MODULE:  ELMOS1_BEETEST.OMF.CRBUILD (EFM8SB1_SLEEPMODE_PORTMATCHWAKE)

BASE        START       END         USED      MEMORY CLASS
==========================================================
C:000000H   C:000000H   C:001FFEH   001563H   CODE
C:000000H   C:000000H   C:001FFEH             CONST
LX51 LINKER/LOCATER V4.66.30.0                                                        11/13/2019  15:40:31  PAGE 2


C:000000H   C:000000H   C:001FFEH             ECODE
B00:0000H   C:000000H   C:001FFEH             HCONST
X:000000H   X:000000H   X:0000FFH   000001H   XDATA
X:000000H   X:000000H   X:0000FFH             HDATA
I:000000H   I:000000H   I:00007FH   00007FH   DATA
I:000000H   I:000000H   I:0000FFH   000001H   IDATA


MEMORY MAP OF MODULE:  ELMOS1_BEETEST.OMF.CRBUILD (EFM8SB1_SLEEPMODE_PORTMATCHWAKE)


START     STOP      LENGTH    ALIGN  RELOC    MEMORY CLASS   SEGMENT NAME
=========================================================================

* * * * * * * * * * *   D A T A   M E M O R Y   * * * * * * * * * * * * *
000000H   000007H   000008H   ---    AT..     DATA           "REG BANK 0"
000008H   000072H   00006BH   BYTE   UNIT     DATA           _DATA_GROUP_
000073H   000079H   000007H   BYTE   UNIT     DATA           ?DT?EFM8SB1_SLEEPMODE_PORTMATCHWAKE
00007AH   00007DH   000004H   BYTE   UNIT     DATA           ?DT?INTERRUPTS
00007EH   00007EH   000001H   BYTE   UNIT     DATA           ?DT?SMARTCLOCK
00007FH   00007FH   000001H   BYTE   UNIT     IDATA          ?STACK

* * * * * * * * * * *   C O D E   M E M O R Y   * * * * * * * * * * * * *
000000H   000002H   000003H   ---    OFFS..   CODE           ?CO?SILABS_STARTUP?3
000003H   000028H   000026H   BYTE   UNIT     CODE           ?PR?_MSLEEP?EFM8SB1_SLEEPMODE_PORTMATCHWAKE
000029H   000029H   000001H   BYTE   UNIT     CODE           ?PR?FLASH_0_ENTER_DEFAULTMODE_FROM_RESET?INITDEVICE
00002AH   00002AH   000001H   ---    ---      **GAP**
00002BH   00002DH   000003H   BYTE   OFFS..   CODE           ?INTERRUPTS?0002B
00002EH   000052H   000025H   BYTE   UNIT     CODE           ?PR?SEND_CMD_SEND_C?EFM8SB1_SLEEPMODE_PORTMATCHWAKE
000053H   000055H   000003H   BYTE   OFFS..   CODE           ?INTERRUPTS?00053
000056H   00045EH   000409H   BYTE   UNIT     CODE           ?PR?_ELMOS_GETDISTENCE?EFM8SB1_SLEEPMODE_PORTMATCHWAKE
00045FH   0007D8H   00037AH   BYTE   UNIT     CODE           ?C?LIB_CODE
0007D9H   000A47H   00026FH   BYTE   UNIT     CODE           ?CO?EFM8SB1_SLEEPMODE_PORTMATCHWAKE
000A48H   000C73H   00022CH   BYTE   UNIT     CODE           ?PR?_INT_TO_STRING?EFM8SB1_SLEEPMODE_PORTMATCHWAKE
000C74H   000E5FH   0001ECH   BYTE   UNIT     CODE           ?PR?COMMAND_MEAS_SETUP?EFM8SB1_SLEEPMODE_PORTMATCHWAKE
000E60H   001032H   0001D3H   BYTE   UNIT     CODE           ?PR?COMMAND_SET_THRESHOLD?EFM8SB1_SLEEPMODE_PORTMATCHWAKE
001033H   00111EH   0000ECH   BYTE   UNIT     CODE           ?PR?_TIMER_SLEEPUS_SELECT?INTERRUPTS
00111FH   0011AAH   00008CH   BYTE   UNIT     CODE           ?C_C51STARTUP
0011ABH   00122CH   000082H   BYTE   UNIT     CODE           ?PR?_SET_TIMER2?INTERRUPTS
00122DH   001270H   000044H   BYTE   UNIT     CODE           ?C?LDIV
001271H   0012ADH   00003DH   BYTE   UNIT     CODE           ?CO?INTERRUPTS
0012AEH   0012E7H   00003AH   BYTE   UNIT     CODE           ?PR?_SEND_BIT?EFM8SB1_SLEEPMODE_PORTMATCHWAKE
0012E8H   00131BH   000034H   BYTE   UNIT     CODE           ?PR?ENTER_DEFAULTMODE_FROM_RESET?INITDEVICE
00131CH   00134AH   00002FH   BYTE   UNIT     CODE           ?PR?ADC0EOC_ISR?INTERRUPTS
00134BH   001378H   00002EH   BYTE   UNIT     CODE           ?PR?MAIN?EFM8SB1_SLEEPMODE_PORTMATCHWAKE
001379H   0013A6H   00002EH   BYTE   UNIT     CODE           ?PR?_UART_SEND?INITDEVICE
0013A7H   0013D3H   00002DH   BYTE   UNIT     CODE           ?PR?_ELMOS_ABS?EFM8SB1_SLEEPMODE_PORTMATCHWAKE
0013D4H   0013F7H   000024H   BYTE   UNIT     CODE           ?PR?SEND_CMD_SEND_B?EFM8SB1_SLEEPMODE_PORTMATCHWAKE
0013F8H   001417H   000020H   BYTE   UNIT     CODE           ?PR?_USLEEP?EFM8SB1_SLEEPMODE_PORTMATCHWAKE
001418H   001433H   00001CH   BYTE   UNIT     CODE           ?PR?SEND_CMD_MEAS_SETUP?EFM8SB1_SLEEPMODE_PORTMATCHWAKE
001434H   00144EH   00001BH   BYTE   UNIT     CODE           ?PR?SEND_CMD?EFM8SB1_SLEEPMODE_PORTMATCHWAKE
00144FH   001469H   00001BH   BYTE   UNIT     CODE           ?PR?SEND_CMD_THRES_SETUP?EFM8SB1_SLEEPMODE_PORTMATCHWAKE
00146AH   001482H   000019H   BYTE   UNIT     CODE           ?PR?TIMER16_2_ENTER_DEFAULTMODE_FROM_RESET?INITDEVICE
001483H   001499H   000017H   BYTE   UNIT     CODE           ?PR?TIMER2_ISR?INTERRUPTS
00149AH   0014AFH   000016H   BYTE   UNIT     CODE           ?PR?SEND_CMD_SEND_A?EFM8SB1_SLEEPMODE_PORTMATCHWAKE
0014B0H   0014C4H   000015H   BYTE   UNIT     CODE           ?PR?ADC_0_ENTER_DEFAULTMODE_FROM_RESET?INITDEVICE
0014C5H   0014D6H   000012H   BYTE   UNIT     CODE           ?PR?_ELMOSRUN_COUNT_INCREASE?EFM8SB1_SLEEPMODE_PORTMATCHWA
                                                             -KE
0014D7H   0014E4H   00000EH   BYTE   UNIT     CODE           ?PR?_GPIO_SET_ELMOS?EFM8SB1_SLEEPMODE_PORTMATCHWAKE
0014E5H   0014F2H   00000EH   BYTE   UNIT     CODE           ?C_INITSEG
0014F3H   001500H   00000EH   BYTE   UNIT     CODE           ?PR?TIMER01_0_ENTER_DEFAULTMODE_FROM_RESET?INITDEVICE
001501H   00150DH   00000DH   BYTE   UNIT     CODE           ?PR?PORTS_0_ENTER_DEFAULTMODE_FROM_RESET?INITDEVICE
LX51 LINKER/LOCATER V4.66.30.0                                                        11/13/2019  15:40:31  PAGE 3


00150EH   00151AH   00000DH   BYTE   UNIT     CODE           ?PR?PORTS_1_ENTER_DEFAULTMODE_FROM_RESET?INITDEVICE
00151BH   001524H   00000AH   BYTE   UNIT     CODE           ?PR?TIMER_SETUP_0_ENTER_DEFAULTMODE_FROM_RESET?INITDEVICE
001525H   00152EH   00000AH   BYTE   UNIT     CODE           ?PR?STOP_TIMER2?INTERRUPTS
00152FH   001537H   000009H   BYTE   UNIT     CODE           ?PR?PCA_0_ENTER_DEFAULTMODE_FROM_RESET?INITDEVICE
001538H   001540H   000009H   BYTE   UNIT     CODE           ?PR?HFOSC_0_ENTER_DEFAULTMODE_FROM_RESET?INITDEVICE
001541H   001549H   000009H   BYTE   UNIT     CODE           ?PR?CLOCK_0_ENTER_DEFAULTMODE_FROM_RESET?INITDEVICE
00154AH   001550H   000007H   BYTE   UNIT     CODE           ?PR?PBCFG_0_ENTER_DEFAULTMODE_FROM_RESET?INITDEVICE
001551H   001557H   000007H   BYTE   UNIT     CODE           ?PR?INTERRUPT_0_ENTER_DEFAULTMODE_FROM_RESET?INITDEVICE
001558H   00155BH   000004H   BYTE   UNIT     CODE           ?PR?VREG_0_ENTER_DEFAULTMODE_FROM_RESET?INITDEVICE
00155CH   00155FH   000004H   BYTE   UNIT     CODE           ?PR?RSTSRC_0_ENTER_DEFAULTMODE_FROM_RESET?INITDEVICE
001560H   001563H   000004H   BYTE   UNIT     CODE           ?PR?UART_0_ENTER_DEFAULTMODE_FROM_RESET?INITDEVICE

* * * * * * * * * * *  X D A T A   M E M O R Y  * * * * * * * * * * * * *
000000H   000000H   000001H   BYTE   OFFS..   XDATA          ?XD?EFM8SB1_SLEEPMODE_PORTMATCHWAKE?0

* * * * * * * * *   R E M O V E D     S E G M E N T S   * * * * * * * *
   *DEL*:           00000AH   BYTE   UNIT     CODE           ?PR?GPIO_GET_ELMOS?EFM8SB1_SLEEPMODE_PORTMATCHWAKE
   *DEL*:           000015H   BYTE   UNIT     CODE           ?PR?SEND_CMD_READ_ID?EFM8SB1_SLEEPMODE_PORTMATCHWAKE
   *DEL*:           000063H   BYTE   UNIT     CODE           ?PR?_HEX_TO_STRING?EFM8SB1_SLEEPMODE_PORTMATCHWAKE
   *DEL*:           000008H   BYTE   UNIT     DATA           ?DT?_HEX_TO_STRING?EFM8SB1_SLEEPMODE_PORTMATCHWAKE
   *DEL*:           00006DH   BYTE   UNIT     CODE           ?PR?_LONG_TO_STRING?EFM8SB1_SLEEPMODE_PORTMATCHWAKE
   *DEL*:           00000AH   BYTE   UNIT     DATA           ?DT?_LONG_TO_STRING?EFM8SB1_SLEEPMODE_PORTMATCHWAKE
   *DEL*:           000055H   BYTE   UNIT     CODE           ?PR?RECV_BIT?EFM8SB1_SLEEPMODE_PORTMATCHWAKE
   *DEL*:           00007FH   BYTE   UNIT     CODE           ?PR?_RECV_BITS?EFM8SB1_SLEEPMODE_PORTMATCHWAKE
   *DEL*:           00000FH   BYTE   UNIT     DATA           ?DT?_RECV_BITS?EFM8SB1_SLEEPMODE_PORTMATCHWAKE
   *DEL*:           000016H   BYTE   UNIT     CODE           ?PR?SEND_CMD_READ_MEAS_SETUP?EFM8SB1_SLEEPMODE_PORTMATCHWA
                                                             -KE
   *DEL*:           000016H   BYTE   UNIT     CODE           ?PR?SEND_CMD_READ_EEPROM?EFM8SB1_SLEEPMODE_PORTMATCHWAKE
   *DEL*:           000013H   BYTE   UNIT     CODE           ?PR?SEND_CMD_READ_THRES_SETUP?EFM8SB1_SLEEPMODE_PORTMATCHW
                                                             -AKE
   *DEL*:           000085H   BYTE   UNIT     CODE           ?PR?COMMAND_READ_MEAS_SETUP?EFM8SB1_SLEEPMODE_PORTMATCHWAK
                                                             -E
   *DEL*:           000026H   BYTE   UNIT     DATA           ?DT?COMMAND_READ_MEAS_SETUP?EFM8SB1_SLEEPMODE_PORTMATCHWAK
                                                             -E
   *DEL*:           000095H   BYTE   UNIT     CODE           ?PR?COMMAND_READ_EEPROM?EFM8SB1_SLEEPMODE_PORTMATCHWAKE
   *DEL*:           000024H   BYTE   UNIT     DATA           ?DT?COMMAND_READ_EEPROM?EFM8SB1_SLEEPMODE_PORTMATCHWAKE
   *DEL*:           000097H   BYTE   UNIT     CODE           ?PR?COMMAND_READID?EFM8SB1_SLEEPMODE_PORTMATCHWAKE
   *DEL*:           00001EH   BYTE   UNIT     DATA           ?DT?COMMAND_READID?EFM8SB1_SLEEPMODE_PORTMATCHWAKE
   *DEL*:           00007AH   BYTE   UNIT     CODE           ?PR?COMMAND_READ_THRESHOLD?EFM8SB1_SLEEPMODE_PORTMATCHWAKE
   *DEL*:           000047H   BYTE   UNIT     DATA           ?DT?COMMAND_READ_THRESHOLD?EFM8SB1_SLEEPMODE_PORTMATCHWAKE
   *DEL*:           000004H   BYTE   UNIT     CODE           ?PR?UART_0_ENTER_DEFAULTMODE_TO_NORMAL?INITDEVICE
   *DEL*:           000004H   BYTE   UNIT     CODE           ?PR?UART_0_ENTER_DEFAULTMODE_TO_UART?INITDEVICE
   *DEL*:           000028H   BYTE   UNIT     CODE           ?PR?_UART_RECEIVE?INITDEVICE
   *DEL*:           000003H   BYTE   UNIT     DATA           ?DT?_UART_RECEIVE?INITDEVICE
   *DEL*:           000063H   BYTE   UNIT     CODE           ?PR?_UART_RECEIVE_TIMEOUT?INITDEVICE
   *DEL*:           00000CH   BYTE   UNIT     DATA           ?DT?_UART_RECEIVE_TIMEOUT?INITDEVICE
   *DEL*:           000112H   BYTE   UNIT     CODE           ?PR?_UART_RECEIVE_HAVE_TIMEOUT?INITDEVICE
   *DEL*:           000015H   BYTE   UNIT     DATA           ?DT?_UART_RECEIVE_HAVE_TIMEOUT?INITDEVICE
   *DEL*:           000077H   BYTE   UNIT     CODE           ?PR?UART_RECEIVE_NO_TIMEOUT?INITDEVICE
   *DEL*:           00000DH   BYTE   UNIT     DATA           ?DT?UART_RECEIVE_NO_TIMEOUT?INITDEVICE
   *DEL*:           000008H   BYTE   UNIT     CONST          ?CO?INITDEVICE
   *DEL*:           00000BH   BYTE   UNIT     CODE           ?PR?_RTC_READ?SMARTCLOCK
   *DEL*:           000008H   BYTE   UNIT     CODE           ?PR?_RTC_WRITE?SMARTCLOCK
   *DEL*:           00002CH   BYTE   UNIT     CODE           ?PR?_RTC_WRITEALARM?SMARTCLOCK
   *DEL*:           000004H   BYTE   UNIT     DATA           ?DT?_RTC_WRITEALARM?SMARTCLOCK
   *DEL*:           000034H   BYTE   UNIT     CODE           ?PR?RTC_GETCURRENTTIME?SMARTCLOCK
   *DEL*:           000004H   BYTE   UNIT     DATA           ?DT?RTC_GETCURRENTTIME?SMARTCLOCK
   *DEL*:           00002FH   BYTE   UNIT     CODE           ?PR?_RTC_SETCURRENTTIME?SMARTCLOCK
   *DEL*:           000004H   BYTE   UNIT     DATA           ?DT?_RTC_SETCURRENTTIME?SMARTCLOCK
   *DEL*:           00000EH   BYTE   UNIT     CODE           ?PR?_RTC0CN0_SETBITS?SMARTCLOCK
   *DEL*:           00000AH   BYTE   UNIT     CODE           ?PR?_RTC0CN0_CLEARBITS?SMARTCLOCK

LX51 LINKER/LOCATER V4.66.30.0                                                        11/13/2019  15:40:31  PAGE 4




OVERLAY MAP OF MODULE:   ELMOS1_BEETEST.OMF.CRBUILD (EFM8SB1_SLEEPMODE_PORTMATCHWAKE)


FUNCTION/MODULE                                BIT_GROUP   DATA_GROUP 
--> CALLED FUNCTION/MODULE                    START  STOP  START  STOP
======================================================================
ADC0EOC_ISR/INTERRUPTS                        ----- -----  0008H 000BH

*** NEW ROOT ********************************

TIMER2_ISR/INTERRUPTS                         ----- -----  ----- -----

*** NEW ROOT ********************************

?C_C51STARTUP                                 ----- -----  ----- -----
  +--> MAIN/EFM8SB1_SLEEPMODE_PORTMATCHWAKE
  +--> ?C_INITSEG

MAIN/EFM8SB1_SLEEPMODE_PORTMATCHWAKE          ----- -----  ----- -----
  +--> ENTER_DEFAULTMODE_FROM_RESET/INITDEVICE
  +--> _MSLEEP/EFM8SB1_SLEEPMODE_PORTMATCHWAKE
  +--> COMMAND_MEAS_SETUP/EFM8SB1_SLEEPMODE_PORTMATCHWAKE
  +--> COMMAND_SET_THRESHOLD/EFM8SB1_SLEEPMODE_PORTMATCHWAKE
  +--> _ELMOS_GETDISTENCE/EFM8SB1_SLEEPMODE_PORTMATCHWAKE

ENTER_DEFAULTMODE_FROM_RESET/INITDEVICE       ----- -----  000CH 000CH
  +--> PCA_0_ENTER_DEFAULTMODE_FROM_RESET/INITDEVICE
  +--> VREG_0_ENTER_DEFAULTMODE_FROM_RESET/INITDEVICE
  +--> PORTS_0_ENTER_DEFAULTMODE_FROM_RESET/INITDEVICE
  +--> PORTS_1_ENTER_DEFAULTMODE_FROM_RESET/INITDEVICE
  +--> PBCFG_0_ENTER_DEFAULTMODE_FROM_RESET/INITDEVICE
  +--> RSTSRC_0_ENTER_DEFAULTMODE_FROM_RESET/INITDEVICE
  +--> HFOSC_0_ENTER_DEFAULTMODE_FROM_RESET/INITDEVICE
  +--> CLOCK_0_ENTER_DEFAULTMODE_FROM_RESET/INITDEVICE
  +--> FLASH_0_ENTER_DEFAULTMODE_FROM_RESET/INITDEVICE
  +--> TIMER01_0_ENTER_DEFAULTMODE_FROM_RESET/INITDEVICE
  +--> TIMER16_2_ENTER_DEFAULTMODE_FROM_RESET/INITDEVICE
  +--> TIMER_SETUP_0_ENTER_DEFAULTMODE_FROM_RESET/INITDEVICE
  +--> ADC_0_ENTER_DEFAULTMODE_FROM_RESET/INITDEVICE
  +--> UART_0_ENTER_DEFAULTMODE_FROM_RESET/INITDEVICE
  +--> INTERRUPT_0_ENTER_DEFAULTMODE_FROM_RESET/INITDEVICE

PCA_0_ENTER_DEFAULTMODE_FROM_RESET/INITD+     ----- -----  ----- -----
... EVICE

VREG_0_ENTER_DEFAULTMODE_FROM_RESET/INIT+     ----- -----  ----- -----
... DEVICE

PORTS_0_ENTER_DEFAULTMODE_FROM_RESET/INI+     ----- -----  ----- -----
... TDEVICE

PORTS_1_ENTER_DEFAULTMODE_FROM_RESET/INI+     ----- -----  ----- -----
... TDEVICE

PBCFG_0_ENTER_DEFAULTMODE_FROM_RESET/INI+     ----- -----  ----- -----
... TDEVICE

RSTSRC_0_ENTER_DEFAULTMODE_FROM_RESET/IN+     ----- -----  ----- -----
... ITDEVICE

LX51 LINKER/LOCATER V4.66.30.0                                                        11/13/2019  15:40:31  PAGE 5


HFOSC_0_ENTER_DEFAULTMODE_FROM_RESET/INI+     ----- -----  ----- -----
... TDEVICE

CLOCK_0_ENTER_DEFAULTMODE_FROM_RESET/INI+     ----- -----  ----- -----
... TDEVICE

FLASH_0_ENTER_DEFAULTMODE_FROM_RESET/INI+     ----- -----  ----- -----
... TDEVICE

TIMER01_0_ENTER_DEFAULTMODE_FROM_RESET/I+     ----- -----  ----- -----
... NITDEVICE

TIMER16_2_ENTER_DEFAULTMODE_FROM_RESET/I+     ----- -----  ----- -----
... NITDEVICE

TIMER_SETUP_0_ENTER_DEFAULTMODE_FROM_RES+     ----- -----  ----- -----
... ET/INITDEVICE

ADC_0_ENTER_DEFAULTMODE_FROM_RESET/INITD+     ----- -----  ----- -----
... EVICE

UART_0_ENTER_DEFAULTMODE_FROM_RESET/INIT+     ----- -----  ----- -----
... DEVICE

INTERRUPT_0_ENTER_DEFAULTMODE_FROM_RESET+     ----- -----  ----- -----
... /INITDEVICE

_MSLEEP/EFM8SB1_SLEEPMODE_PORTMATCHWAKE       ----- -----  000CH 000DH
  +--> _USLEEP/EFM8SB1_SLEEPMODE_PORTMATCHWAKE

_USLEEP/EFM8SB1_SLEEPMODE_PORTMATCHWAKE       ----- -----  000EH 000FH

COMMAND_MEAS_SETUP/EFM8SB1_SLEEPMODE_POR+     ----- -----  000CH 0053H
... TMATCHWAKE
  +--> ?CO?EFM8SB1_SLEEPMODE_PORTMATCHWAKE
  +--> SEND_CMD_MEAS_SETUP/EFM8SB1_SLEEPMODE_PORTMATCHWAKE
  +--> _SEND_BIT/EFM8SB1_SLEEPMODE_PORTMATCHWAKE

?CO?EFM8SB1_SLEEPMODE_PORTMATCHWAKE           ----- -----  ----- -----

SEND_CMD_MEAS_SETUP/EFM8SB1_SLEEPMODE_PO+     ----- -----  ----- -----
... RTMATCHWAKE
  +--> SEND_CMD/EFM8SB1_SLEEPMODE_PORTMATCHWAKE
  +--> _SEND_BIT/EFM8SB1_SLEEPMODE_PORTMATCHWAKE

SEND_CMD/EFM8SB1_SLEEPMODE_PORTMATCHWAKE      ----- -----  ----- -----
  +--> _GPIO_SET_ELMOS/EFM8SB1_SLEEPMODE_PORTMATCHWAKE
  +--> _TIMER_SLEEPUS_SELECT/INTERRUPTS

_GPIO_SET_ELMOS/EFM8SB1_SLEEPMODE_PORTMA+     ----- -----  ----- -----
... TCHWAKE

_TIMER_SLEEPUS_SELECT/INTERRUPTS              ----- -----  006BH 006FH
  +--> ?CO?INTERRUPTS
  +--> _UART_SEND/INITDEVICE

?CO?INTERRUPTS                                ----- -----  ----- -----

_UART_SEND/INITDEVICE                         ----- -----  0070H 0072H

_SEND_BIT/EFM8SB1_SLEEPMODE_PORTMATCHWAK+     ----- -----  ----- -----
... E
LX51 LINKER/LOCATER V4.66.30.0                                                        11/13/2019  15:40:31  PAGE 6


  +--> _GPIO_SET_ELMOS/EFM8SB1_SLEEPMODE_PORTMATCHWAKE
  +--> _TIMER_SLEEPUS_SELECT/INTERRUPTS

COMMAND_SET_THRESHOLD/EFM8SB1_SLEEPMODE_+     ----- -----  000CH 006AH
... PORTMATCHWAKE
  +--> ?CO?EFM8SB1_SLEEPMODE_PORTMATCHWAKE
  +--> _UART_SEND/INITDEVICE
  +--> SEND_CMD_THRES_SETUP/EFM8SB1_SLEEPMODE_PORTMATCHWAKE
  +--> _SEND_BIT/EFM8SB1_SLEEPMODE_PORTMATCHWAKE

SEND_CMD_THRES_SETUP/EFM8SB1_SLEEPMODE_P+     ----- -----  ----- -----
... ORTMATCHWAKE
  +--> SEND_CMD/EFM8SB1_SLEEPMODE_PORTMATCHWAKE
  +--> _SEND_BIT/EFM8SB1_SLEEPMODE_PORTMATCHWAKE

_ELMOS_GETDISTENCE/EFM8SB1_SLEEPMODE_POR+     ----- -----  000CH 0035H
... TMATCHWAKE
  +--> ?CO?EFM8SB1_SLEEPMODE_PORTMATCHWAKE
  +--> SEND_CMD_SEND_A/EFM8SB1_SLEEPMODE_PORTMATCHWAKE
  +--> _TIMER_SLEEPUS_SELECT/INTERRUPTS
  +--> SEND_CMD_SEND_C/EFM8SB1_SLEEPMODE_PORTMATCHWAKE
  +--> SEND_CMD_SEND_B/EFM8SB1_SLEEPMODE_PORTMATCHWAKE
  +--> _SET_TIMER2/INTERRUPTS
  +--> STOP_TIMER2/INTERRUPTS
  +--> _UART_SEND/INITDEVICE
  +--> _INT_TO_STRING/EFM8SB1_SLEEPMODE_PORTMATCHWAKE
  +--> _ELMOSRUN_COUNT_INCREASE/EFM8SB1_SLEEPMODE_PORTMATCHWAKE
  +--> _ELMOS_ABS/EFM8SB1_SLEEPMODE_PORTMATCHWAKE

SEND_CMD_SEND_A/EFM8SB1_SLEEPMODE_PORTMA+     ----- -----  ----- -----
... TCHWAKE
  +--> _GPIO_SET_ELMOS/EFM8SB1_SLEEPMODE_PORTMATCHWAKE
  +--> _TIMER_SLEEPUS_SELECT/INTERRUPTS

SEND_CMD_SEND_C/EFM8SB1_SLEEPMODE_PORTMA+     ----- -----  ----- -----
... TCHWAKE
  +--> _GPIO_SET_ELMOS/EFM8SB1_SLEEPMODE_PORTMATCHWAKE
  +--> _TIMER_SLEEPUS_SELECT/INTERRUPTS
  +--> _SEND_BIT/EFM8SB1_SLEEPMODE_PORTMATCHWAKE

SEND_CMD_SEND_B/EFM8SB1_SLEEPMODE_PORTMA+     ----- -----  ----- -----
... TCHWAKE
  +--> _GPIO_SET_ELMOS/EFM8SB1_SLEEPMODE_PORTMATCHWAKE
  +--> _TIMER_SLEEPUS_SELECT/INTERRUPTS
  +--> _SEND_BIT/EFM8SB1_SLEEPMODE_PORTMATCHWAKE

_SET_TIMER2/INTERRUPTS                        ----- -----  0036H 0038H
  +--> ?CO?INTERRUPTS
  +--> _UART_SEND/INITDEVICE

STOP_TIMER2/INTERRUPTS                        ----- -----  0036H 0036H

_INT_TO_STRING/EFM8SB1_SLEEPMODE_PORTMAT+     ----- -----  0036H 003CH
... CHWAKE

_ELMOSRUN_COUNT_INCREASE/EFM8SB1_SLEEPMO+     ----- -----  ----- -----
... DE_PORTMATCHWAKE

_ELMOS_ABS/EFM8SB1_SLEEPMODE_PORTMATCHWA+     ----- -----  ----- -----
... KE

?C_INITSEG                                    ----- -----  ----- -----
LX51 LINKER/LOCATER V4.66.30.0                                                        11/13/2019  15:40:31  PAGE 7





PUBLIC SYMBOLS OF MODULE:  ELMOS1_BEETEST.OMF.CRBUILD (EFM8SB1_SLEEPMODE_PORTMATCHWAKE)


      VALUE       CLASS    TYPE      PUBLIC SYMBOL NAME
      =================================================
*DEL*:00000000H   DATA     BYTE      ?_uart_receive_timeout?BYTE
      01000690H   CODE     ---       ?C?CCASE
      0100056EH   CODE     ---       ?C?CLDOPTR
      01000555H   CODE     ---       ?C?CLDPTR
      00000000H   NUMBER   ---       ?C?CODESEG
      0100052FH   CODE     ---       ?C?COPY
      010005ADH   CODE     ---       ?C?CSTOPTR
      0100059BH   CODE     ---       ?C?CSTPTR
      010005CFH   CODE     ---       ?C?IMUL
      01000617H   CODE     ---       ?C?LMUL
      010005E1H   CODE     ---       ?C?SIDIV
      01000666H   CODE     ---       ?C?SLCMP
      0100122DH   CODE     ---       ?C?SLDIV
      0100067CH   CODE     ---       ?C?SLSHR
      010006B6H   CODE     ---       ?C?UIDIV
      01000747H   CODE     ---       ?C?ULDIV
      00000000H   NUMBER   ---       ?C?XDATASEG
      01001166H   CODE     ---       ?C_START
      01000000H   CODE     NEAR LAB  ?C_STARTUP
      010013A7H   CODE     ---       _elmos_abs
      01000056H   CODE     ---       _elmos_getdistence
      010014C5H   CODE     ---       _elmosrun_count_increase
      010014DBH   CODE     ---       _gpio_set_elmos
*DEL*:00000000H   CODE     ---       _hex_to_string
      01000A52H   CODE     ---       _int_to_string
*DEL*:00000000H   CODE     ---       _long_to_string
      01000007H   CODE     ---       _msleep
*DEL*:00000004H   CODE     ---       _recv_bits
*DEL*:00000000H   CODE     ---       _RTC0CN0_ClearBits
*DEL*:00000000H   CODE     ---       _RTC0CN0_SetBits
*DEL*:00000000H   CODE     ---       _RTC_Read
*DEL*:00000000H   CODE     ---       _RTC_SetCurrentTime
*DEL*:00000000H   CODE     ---       _RTC_Write
*DEL*:00000000H   CODE     ---       _RTC_WriteAlarm
      010012B2H   CODE     ---       _send_bit
      010011ABH   CODE     ---       _set_timer2
      01001033H   CODE     ---       _timer_sleepus_select
*DEL*:00000000H   CODE     ---       _uart_receive
*DEL*:00000000H   CODE     ---       _uart_receive_have_timeout
*DEL*:00000000H   CODE     ---       _uart_receive_timeout
      0100137FH   CODE     ---       _uart_send
      010013F8H   CODE     ---       _usleep
*SFR* 000000E0H   DATA     BYTE      ACC
*SFR* 000000E0H   DATA     BIT       ACC_ACC0
*SFR* 000000E0H.1 DATA     BIT       ACC_ACC1
*SFR* 000000E0H.2 DATA     BIT       ACC_ACC2
*SFR* 000000E0H.3 DATA     BIT       ACC_ACC3
*SFR* 000000E0H.4 DATA     BIT       ACC_ACC4
*SFR* 000000E0H.5 DATA     BIT       ACC_ACC5
*SFR* 000000E0H.6 DATA     BIT       ACC_ACC6
*SFR* 000000E0H.7 DATA     BIT       ACC_ACC7
*SFR* 000000BDH   DATA     WORD      ADC0
*SFR* 000000BAH   DATA     BYTE      ADC0AC
*SFR* 00000097H   DATA     BYTE      ADC0CF
LX51 LINKER/LOCATER V4.66.30.0                                                        11/13/2019  15:40:31  PAGE 8


*SFR* 000000E8H   DATA     BYTE      ADC0CN0
*SFR* 000000E8H.6 DATA     BIT       ADC0CN0_ADBMEN
*SFR* 000000E8H.4 DATA     BIT       ADC0CN0_ADBUSY
*SFR* 000000E8H   DATA     BIT       ADC0CN0_ADCM0
*SFR* 000000E8H.1 DATA     BIT       ADC0CN0_ADCM1
*SFR* 000000E8H.2 DATA     BIT       ADC0CN0_ADCM2
*SFR* 000000E8H.7 DATA     BIT       ADC0CN0_ADEN
*SFR* 000000E8H.5 DATA     BIT       ADC0CN0_ADINT
*SFR* 000000E8H.3 DATA     BIT       ADC0CN0_ADWINT
      0100131CH   CODE     ---       ADC0EOC_ISR
*SFR* 000000C3H   DATA     WORD      ADC0GT
*SFR* 000000C4H   DATA     BYTE      ADC0GTH
*SFR* 000000C3H   DATA     BYTE      ADC0GTL
*SFR* 000000BEH   DATA     BYTE      ADC0H
*SFR* 000000BDH   DATA     BYTE      ADC0L
*SFR* 000000C5H   DATA     WORD      ADC0LT
*SFR* 000000C6H   DATA     BYTE      ADC0LTH
*SFR* 000000C5H   DATA     BYTE      ADC0LTL
*SFR* 00000096H   DATA     BYTE      ADC0MX
*SFR* 000000BBH   DATA     BYTE      ADC0PWR
*SFR* 000000BCH   DATA     BYTE      ADC0TK
      010014B0H   CODE     ---       ADC_0_enter_DefaultMode_from_RESET
*SFR* 000000F0H   DATA     BYTE      B
*SFR* 000000F0H   DATA     BIT       B_B0
*SFR* 000000F0H.1 DATA     BIT       B_B1
*SFR* 000000F0H.2 DATA     BIT       B_B2
*SFR* 000000F0H.3 DATA     BIT       B_B3
*SFR* 000000F0H.4 DATA     BIT       B_B4
*SFR* 000000F0H.5 DATA     BIT       B_B5
*SFR* 000000F0H.6 DATA     BIT       B_B6
*SFR* 000000F0H.7 DATA     BIT       B_B7
*SFR* 0000008EH   DATA     BYTE      CKCON0
*SFR* 000000A9H   DATA     BYTE      CLKSEL
      01001541H   CODE     ---       CLOCK_0_enter_DefaultMode_from_RESET
*SFR* 0000009BH   DATA     BYTE      CMP0CN0
*SFR* 0000009DH   DATA     BYTE      CMP0MD
*SFR* 0000009FH   DATA     BYTE      CMP0MX
      01000C74H   CODE     ---       command_MEAS_SETUP
*DEL*:00000000H   CODE     ---       command_READ_EEPROM
*DEL*:00000000H   CODE     ---       command_READ_MEAS_SETUP
*DEL*:00000000H   CODE     ---       command_read_threshold
*DEL*:00000000H   CODE     ---       command_readid
      01000E60H   CODE     ---       command_set_threshold
      0000007AH   DATA     WORD      count
      0000007CH   DATA     INT       count_timer
*SFR* 0000009EH   DATA     BYTE      CRC0AUTO
*SFR* 00000084H   DATA     BYTE      CRC0CN0
*SFR* 0000009AH   DATA     BYTE      CRC0CNT
*SFR* 00000086H   DATA     BYTE      CRC0DAT
*SFR* 0000009CH   DATA     BYTE      CRC0FLIP
*SFR* 00000085H   DATA     BYTE      CRC0IN
*SFR* 000000AAH   DATA     BYTE      CS0CF
*SFR* 000000B0H   DATA     BYTE      CS0CN0
*SFR* 000000B0H.4 DATA     BIT       CS0CN0_CSBUSY
*SFR* 000000B0H.3 DATA     BIT       CS0CN0_CSCMPEN
*SFR* 000000B0H   DATA     BIT       CS0CN0_CSCMPF
*SFR* 000000B0H.7 DATA     BIT       CS0CN0_CSEN
*SFR* 000000B0H.6 DATA     BIT       CS0CN0_CSEOS
*SFR* 000000B0H.5 DATA     BIT       CS0CN0_CSINT
*SFR* 000000B0H.1 DATA     BIT       CS0CN0_CSPME
*SFR* 000000EEH   DATA     BYTE      CS0DH
*SFR* 000000EDH   DATA     BYTE      CS0DL
LX51 LINKER/LOCATER V4.66.30.0                                                        11/13/2019  15:40:31  PAGE 9


*SFR* 000000AFH   DATA     BYTE      CS0MD1
*SFR* 000000F3H   DATA     BYTE      CS0MD2
*SFR* 000000F3H   DATA     BYTE      CS0MD3
*SFR* 000000ABH   DATA     BYTE      CS0MX
*SFR* 000000DEH   DATA     BYTE      CS0PM
*SFR* 000000D2H   DATA     BYTE      CS0SCAN0
*SFR* 000000D3H   DATA     BYTE      CS0SCAN1
*SFR* 000000DEH   DATA     BYTE      CS0SE
*SFR* 000000DDH   DATA     BYTE      CS0SS
*SFR* 000000FEH   DATA     BYTE      CS0THH
*SFR* 000000FDH   DATA     BYTE      CS0THL
*SFR* 000000E3H   DATA     BYTE      DERIVID
*SFR* 00000082H   DATA     WORD      DP
*SFR* 00000083H   DATA     BYTE      DPH
*SFR* 00000082H   DATA     BYTE      DPL
*SFR* 000000E6H   DATA     BYTE      EIE1
*SFR* 000000E7H   DATA     BYTE      EIE2
*SFR* 000000F6H   DATA     BYTE      EIP1
*SFR* 000000F7H   DATA     BYTE      EIP2
*SFR* 00000090H.7 DATA     BIT       ELMOS_CMD
*SFR* 00000090H.6 DATA     BIT       ELMOS_READ
      00000073H   DATA     BYTE      elmosrun_count
      010012E8H   CODE     ---       enter_DefaultMode_from_RESET
      00000074H   DATA     LONG      firlow_ava
      00000078H   DATA     INT       firstlow_length_last
      01000029H   CODE     ---       FLASH_0_enter_DefaultMode_from_RESET
*SFR* 000000B7H   DATA     BYTE      FLKEY
*SFR* 000000B6H   DATA     BYTE      FLSCL
*DEL*:00000000H   CODE     ---       gpio_get_elmos
*SFR* 000000B3H   DATA     BYTE      HFO0CAL
*SFR* 000000B2H   DATA     BYTE      HFO0CN
      01001538H   CODE     ---       HFOSC_0_enter_DefaultMode_from_RESET
*SFR* 000000A8H   DATA     BYTE      IE
*SFR* 000000A8H.7 DATA     BIT       IE_EA
*SFR* 000000A8H.4 DATA     BIT       IE_ES0
*SFR* 000000A8H.6 DATA     BIT       IE_ESPI0
*SFR* 000000A8H.1 DATA     BIT       IE_ET0
*SFR* 000000A8H.3 DATA     BIT       IE_ET1
*SFR* 000000A8H.5 DATA     BIT       IE_ET2
*SFR* 000000A8H   DATA     BIT       IE_EX0
*SFR* 000000A8H.2 DATA     BIT       IE_EX1
      01001551H   CODE     ---       INTERRUPT_0_enter_DefaultMode_from_RESET
*SFR* 000000B8H   DATA     BYTE      IP
*SFR* 000000B8H.4 DATA     BIT       IP_PS0
*SFR* 000000B8H.6 DATA     BIT       IP_PSPI0
*SFR* 000000B8H.1 DATA     BIT       IP_PT0
*SFR* 000000B8H.3 DATA     BIT       IP_PT1
*SFR* 000000B8H.5 DATA     BIT       IP_PT2
*SFR* 000000B8H   DATA     BIT       IP_PX0
*SFR* 000000B8H.2 DATA     BIT       IP_PX1
*SFR* 000000B9H   DATA     BYTE      IREF0CF
*SFR* 000000D6H   DATA     BYTE      IREF0CN0
*SFR* 000000E4H   DATA     BYTE      IT01CF
*SFR* 00000080H.2 DATA     BIT       LED_GREEN
*SFR* 00000080H.3 DATA     BIT       LED_RED
*SFR* 00000090H.1 DATA     BIT       LED_YELLOW
      0100134BH   CODE     ---       main
*SFR* 00000080H   DATA     BYTE      P0
*SFR* 00000080H   DATA     BIT       P0_B0
*SFR* 00000080H.1 DATA     BIT       P0_B1
*SFR* 00000080H.2 DATA     BIT       P0_B2
*SFR* 00000080H.3 DATA     BIT       P0_B3
LX51 LINKER/LOCATER V4.66.30.0                                                        11/13/2019  15:40:31  PAGE 10


*SFR* 00000080H.4 DATA     BIT       P0_B4
*SFR* 00000080H.5 DATA     BIT       P0_B5
*SFR* 00000080H.6 DATA     BIT       P0_B6
*SFR* 00000080H.7 DATA     BIT       P0_B7
*SFR* 00000099H   DATA     BYTE      P0DRV
*SFR* 000000C7H   DATA     BYTE      P0MASK
*SFR* 000000D7H   DATA     BYTE      P0MAT
*SFR* 000000F1H   DATA     BYTE      P0MDIN
*SFR* 000000A4H   DATA     BYTE      P0MDOUT
*SFR* 000000D4H   DATA     BYTE      P0SKIP
*SFR* 00000090H   DATA     BYTE      P1
*SFR* 00000090H   DATA     BIT       P1_B0
*SFR* 00000090H.1 DATA     BIT       P1_B1
*SFR* 00000090H.2 DATA     BIT       P1_B2
*SFR* 00000090H.3 DATA     BIT       P1_B3
*SFR* 00000090H.4 DATA     BIT       P1_B4
*SFR* 00000090H.5 DATA     BIT       P1_B5
*SFR* 00000090H.6 DATA     BIT       P1_B6
*SFR* 00000090H.7 DATA     BIT       P1_B7
*SFR* 0000009BH   DATA     BYTE      P1DRV
*SFR* 000000BFH   DATA     BYTE      P1MASK
*SFR* 000000CFH   DATA     BYTE      P1MAT
*SFR* 000000F2H   DATA     BYTE      P1MDIN
*SFR* 000000A5H   DATA     BYTE      P1MDOUT
*SFR* 000000D5H   DATA     BYTE      P1SKIP
*SFR* 000000A0H   DATA     BYTE      P2
*SFR* 000000A0H.7 DATA     BIT       P2_B7
*SFR* 0000009DH   DATA     BYTE      P2DRV
*SFR* 000000A6H   DATA     BYTE      P2MDOUT
      0100154AH   CODE     ---       PBCFG_0_enter_DefaultMode_from_RESET
*SFR* 000000F9H   DATA     WORD      PCA0
*SFR* 000000D8H   DATA     BYTE      PCA0CN0
*SFR* 000000D8H   DATA     BIT       PCA0CN0_CCF0
*SFR* 000000D8H.1 DATA     BIT       PCA0CN0_CCF1
*SFR* 000000D8H.2 DATA     BIT       PCA0CN0_CCF2
*SFR* 000000D8H.7 DATA     BIT       PCA0CN0_CF
*SFR* 000000D8H.6 DATA     BIT       PCA0CN0_CR
*SFR* 000000FBH   DATA     WORD      PCA0CP0
*SFR* 000000E9H   DATA     WORD      PCA0CP1
*SFR* 000000EBH   DATA     WORD      PCA0CP2
*SFR* 000000FCH   DATA     BYTE      PCA0CPH0
*SFR* 000000EAH   DATA     BYTE      PCA0CPH1
*SFR* 000000ECH   DATA     BYTE      PCA0CPH2
*SFR* 000000FBH   DATA     BYTE      PCA0CPL0
*SFR* 000000E9H   DATA     BYTE      PCA0CPL1
*SFR* 000000EBH   DATA     BYTE      PCA0CPL2
*SFR* 000000DAH   DATA     BYTE      PCA0CPM0
*SFR* 000000DBH   DATA     BYTE      PCA0CPM1
*SFR* 000000DCH   DATA     BYTE      PCA0CPM2
*SFR* 000000FAH   DATA     BYTE      PCA0H
*SFR* 000000F9H   DATA     BYTE      PCA0L
*SFR* 000000D9H   DATA     BYTE      PCA0MD
*SFR* 000000DFH   DATA     BYTE      PCA0PWM
      0100152FH   CODE     ---       PCA_0_enter_DefaultMode_from_RESET
*SFR* 00000087H   DATA     BYTE      PCON0
*SFR* 000000B5H   DATA     BYTE      PMU0CF
*SFR* 000000CEH   DATA     BYTE      PMU0FL
*SFR* 000000B5H   DATA     BYTE      PMU0MD
      01001501H   CODE     ---       PORTS_0_enter_DefaultMode_from_RESET
      0100150EH   CODE     ---       PORTS_1_enter_DefaultMode_from_RESET
*SFR* 000000A0H   DATA     BYTE      PPAGE_SFR
*SFR* 0000008FH   DATA     BYTE      PSCTL
LX51 LINKER/LOCATER V4.66.30.0                                                        11/13/2019  15:40:31  PAGE 11


*SFR* 000000D0H   DATA     BYTE      PSW
*SFR* 000000D0H.6 DATA     BIT       PSW_AC
*SFR* 000000D0H.7 DATA     BIT       PSW_CY
*SFR* 000000D0H.5 DATA     BIT       PSW_F0
*SFR* 000000D0H.1 DATA     BIT       PSW_F1
*SFR* 000000D0H.2 DATA     BIT       PSW_OV
*SFR* 000000D0H   DATA     BIT       PSW_PARITY
*SFR* 000000D0H.3 DATA     BIT       PSW_RS0
*SFR* 000000D0H.4 DATA     BIT       PSW_RS1
*DEL*:00000000H   CODE     ---       recv_bit
*SFR* 000000D1H   DATA     BYTE      REF0CN
*SFR* 000000C9H   DATA     BYTE      REG0CN
      02000000H   XDATA    BYTE      reserved
*SFR* 000000E2H   DATA     BYTE      REVID
*SFR* 000000EFH   DATA     BYTE      RSTSRC
      0100155CH   CODE     ---       RSTSRC_0_enter_DefaultMode_from_RESET
*SFR* 000000ACH   DATA     BYTE      RTC0ADR
      0000007EH   DATA     BYTE      RTC0CN0_Local
*SFR* 000000ADH   DATA     BYTE      RTC0DAT
*SFR* 000000AEH   DATA     BYTE      RTC0KEY
*DEL*:00000000H   CODE     ---       RTC_GetCurrentTime
*SFR* 00000099H   DATA     BYTE      SBUF0
*SFR* 00000098H   DATA     BYTE      SCON0
*SFR* 00000098H.5 DATA     BIT       SCON0_MCE
*SFR* 00000098H.2 DATA     BIT       SCON0_RB8
*SFR* 00000098H.4 DATA     BIT       SCON0_REN
*SFR* 00000098H   DATA     BIT       SCON0_RI
*SFR* 00000098H.7 DATA     BIT       SCON0_SMODE
*SFR* 00000098H.3 DATA     BIT       SCON0_TB8
*SFR* 00000098H.1 DATA     BIT       SCON0_TI
      01001434H   CODE     ---       send_cmd
      01001418H   CODE     ---       send_cmd_MEAS_SETUP
*DEL*:00000000H   CODE     ---       send_cmd_READ_EEPROM
*DEL*:00000000H   CODE     ---       send_cmd_READ_ID
*DEL*:00000000H   CODE     ---       send_cmd_READ_MEAS_SETUP
*DEL*:00000000H   CODE     ---       send_cmd_READ_THRES_SETUP
      0100149AH   CODE     ---       send_cmd_SEND_A
      010013D4H   CODE     ---       send_cmd_SEND_B
      0100002EH   CODE     ---       send_cmd_SEND_C
      0100144FH   CODE     ---       send_cmd_THRES_SETUP
*SFR* 000000A7H   DATA     BYTE      SFRPAGE
*SFR* 000000F5H   DATA     BYTE      SMB0ADM
*SFR* 000000F4H   DATA     BYTE      SMB0ADR
*SFR* 000000C1H   DATA     BYTE      SMB0CF
*SFR* 000000C0H   DATA     BYTE      SMB0CN0
*SFR* 000000C0H.1 DATA     BIT       SMB0CN0_ACK
*SFR* 000000C0H.3 DATA     BIT       SMB0CN0_ACKRQ
*SFR* 000000C0H.2 DATA     BIT       SMB0CN0_ARBLOST
*SFR* 000000C0H.7 DATA     BIT       SMB0CN0_MASTER
*SFR* 000000C0H   DATA     BIT       SMB0CN0_SI
*SFR* 000000C0H.5 DATA     BIT       SMB0CN0_STA
*SFR* 000000C0H.4 DATA     BIT       SMB0CN0_STO
*SFR* 000000C0H.6 DATA     BIT       SMB0CN0_TXMODE
*SFR* 000000C2H   DATA     BYTE      SMB0DAT
*SFR* 00000081H   DATA     BYTE      SP
*SFR* 000000A1H   DATA     BYTE      SPI0CFG
*SFR* 000000A2H   DATA     BYTE      SPI0CKR
*SFR* 000000F8H   DATA     BYTE      SPI0CN0
*SFR* 000000F8H.5 DATA     BIT       SPI0CN0_MODF
*SFR* 000000F8H.2 DATA     BIT       SPI0CN0_NSSMD0
*SFR* 000000F8H.3 DATA     BIT       SPI0CN0_NSSMD1
*SFR* 000000F8H.4 DATA     BIT       SPI0CN0_RXOVRN
LX51 LINKER/LOCATER V4.66.30.0                                                        11/13/2019  15:40:31  PAGE 12


*SFR* 000000F8H   DATA     BIT       SPI0CN0_SPIEN
*SFR* 000000F8H.7 DATA     BIT       SPI0CN0_SPIF
*SFR* 000000F8H.1 DATA     BIT       SPI0CN0_TXBMT
*SFR* 000000F8H.6 DATA     BIT       SPI0CN0_WCOL
*SFR* 000000A3H   DATA     BYTE      SPI0DAT
      01001525H   CODE     ---       stop_timer2
*SFR* 00000088H   DATA     BYTE      TCON
*SFR* 00000088H.1 DATA     BIT       TCON_IE0
*SFR* 00000088H.3 DATA     BIT       TCON_IE1
*SFR* 00000088H   DATA     BIT       TCON_IT0
*SFR* 00000088H.2 DATA     BIT       TCON_IT1
*SFR* 00000088H.5 DATA     BIT       TCON_TF0
*SFR* 00000088H.7 DATA     BIT       TCON_TF1
*SFR* 00000088H.4 DATA     BIT       TCON_TR0
*SFR* 00000088H.6 DATA     BIT       TCON_TR1
*SFR* 0000008CH   DATA     BYTE      TH0
*SFR* 0000008DH   DATA     BYTE      TH1
      010014F3H   CODE     ---       TIMER01_0_enter_DefaultMode_from_RESET
      0100146AH   CODE     ---       TIMER16_2_enter_DefaultMode_from_RESET
      01001483H   CODE     ---       TIMER2_ISR
      0100151BH   CODE     ---       TIMER_SETUP_0_enter_DefaultMode_from_RESET
*SFR* 0000008AH   DATA     BYTE      TL0
*SFR* 0000008BH   DATA     BYTE      TL1
*SFR* 00000089H   DATA     BYTE      TMOD
*SFR* 000000CCH   DATA     WORD      TMR2
*SFR* 000000C8H   DATA     BYTE      TMR2CN0
*SFR* 000000C8H.3 DATA     BIT       TMR2CN0_T2SPLIT
*SFR* 000000C8H   DATA     BIT       TMR2CN0_T2XCLK0
*SFR* 000000C8H.1 DATA     BIT       TMR2CN0_T2XCLK1
*SFR* 000000C8H.4 DATA     BIT       TMR2CN0_TF2CEN
*SFR* 000000C8H.7 DATA     BIT       TMR2CN0_TF2H
*SFR* 000000C8H.6 DATA     BIT       TMR2CN0_TF2L
*SFR* 000000C8H.5 DATA     BIT       TMR2CN0_TF2LEN
*SFR* 000000C8H.2 DATA     BIT       TMR2CN0_TR2
*SFR* 000000CDH   DATA     BYTE      TMR2H
*SFR* 000000CCH   DATA     BYTE      TMR2L
*SFR* 000000CAH   DATA     WORD      TMR2RL
*SFR* 000000CBH   DATA     BYTE      TMR2RLH
*SFR* 000000CAH   DATA     BYTE      TMR2RLL
*SFR* 00000094H   DATA     WORD      TMR3
*SFR* 00000091H   DATA     BYTE      TMR3CN0
*SFR* 00000095H   DATA     BYTE      TMR3H
*SFR* 00000094H   DATA     BYTE      TMR3L
*SFR* 00000092H   DATA     WORD      TMR3RL
*SFR* 00000093H   DATA     BYTE      TMR3RLH
*SFR* 00000092H   DATA     BYTE      TMR3RLL
*SFR* 0000008EH   DATA     BYTE      TOFFH
*SFR* 0000008DH   DATA     BYTE      TOFFL
      01001560H   CODE     ---       UART_0_enter_DefaultMode_from_RESET
*DEL*:00000000H   CODE     ---       UART_0_enter_DefaultMode_to_Normal
*DEL*:00000000H   CODE     ---       UART_0_enter_DefaultMode_to_Uart
*DEL*:00000000H   CODE     ---       uart_receive_no_timeout
*SFR* 00000080H.5 DATA     BIT       UART_RX
*SFR* 00000080H.4 DATA     BIT       UART_TX
*SFR* 000000FFH   DATA     BYTE      VDM0CN
      01001558H   CODE     ---       VREG_0_enter_DefaultMode_from_RESET
*SFR* 000000E1H   DATA     BYTE      XBR0
*SFR* 000000E2H   DATA     BYTE      XBR1
*SFR* 000000E3H   DATA     BYTE      XBR2
*SFR* 000000B1H   DATA     BYTE      XOSC0CN


LX51 LINKER/LOCATER V4.66.30.0                                                        11/13/2019  15:40:31  PAGE 13



SYMBOL TABLE OF MODULE:  ELMOS1_BEETEST.OMF.CRBUILD (EFM8SB1_SLEEPMODE_PORTMATCHWAKE)

      VALUE       REP       CLASS    TYPE      SYMBOL NAME
      ====================================================
      ---         MODULE    ---      ---       EFM8SB1_SLEEPMODE_PORTMATCHWAKE
      00000078H   PUBLIC    DATA     INT       firstlow_length_last
      02000000H   PUBLIC    XDATA    BYTE      reserved
      00000074H   PUBLIC    DATA     LONG      firlow_ava
      00000073H   PUBLIC    DATA     BYTE      elmosrun_count
      0100134BH   PUBLIC    CODE     ---       main
      01000056H   PUBLIC    CODE     ---       _elmos_getdistence
      010014C5H   PUBLIC    CODE     ---       _elmosrun_count_increase
      01000E60H   PUBLIC    CODE     ---       command_set_threshold
      01000C74H   PUBLIC    CODE     ---       command_MEAS_SETUP
      0100144FH   PUBLIC    CODE     ---       send_cmd_THRES_SETUP
      01001418H   PUBLIC    CODE     ---       send_cmd_MEAS_SETUP
      01000A52H   PUBLIC    CODE     ---       _int_to_string
      0100002EH   PUBLIC    CODE     ---       send_cmd_SEND_C
      010013D4H   PUBLIC    CODE     ---       send_cmd_SEND_B
      0100149AH   PUBLIC    CODE     ---       send_cmd_SEND_A
      01001434H   PUBLIC    CODE     ---       send_cmd
      010012B2H   PUBLIC    CODE     ---       _send_bit
      010014DBH   PUBLIC    CODE     ---       _gpio_set_elmos
      010013A7H   PUBLIC    CODE     ---       _elmos_abs
      01000007H   PUBLIC    CODE     ---       _msleep
      010013F8H   PUBLIC    CODE     ---       _usleep
      000000A2H   SFRSYM    DATA     BYTE      SPI0CKR
      00000090H.6 SFRSYM    DATA     BIT       ELMOS_READ
      00000080H   SFRSYM    DATA     BYTE      P0
      000000D0H.2 SFRSYM    DATA     BIT       PSW_OV
      000000B1H   SFRSYM    DATA     BYTE      XOSC0CN
      00000090H   SFRSYM    DATA     BYTE      P1
      000000A0H   SFRSYM    DATA     BYTE      P2
      00000097H   SFRSYM    DATA     BYTE      ADC0CF
      000000C0H.7 SFRSYM    DATA     BIT       SMB0CN0_MASTER
      000000F9H   SFRSYM    DATA     WORD      PCA0
      000000AEH   SFRSYM    DATA     BYTE      RTC0KEY
      000000E6H   SFRSYM    DATA     BYTE      EIE1
      000000C0H.1 SFRSYM    DATA     BIT       SMB0CN0_ACK
      000000E7H   SFRSYM    DATA     BYTE      EIE2
      0000008FH   SFRSYM    DATA     BYTE      PSCTL
      000000E4H   SFRSYM    DATA     BYTE      IT01CF
      000000B0H   SFRSYM    DATA     BYTE      CS0CN0
      000000C0H.6 SFRSYM    DATA     BIT       SMB0CN0_TXMODE
      000000E3H   SFRSYM    DATA     BYTE      DERIVID
      000000AFH   SFRSYM    DATA     BYTE      CS0MD1
      000000A7H   SFRSYM    DATA     BYTE      SFRPAGE
      000000F3H   SFRSYM    DATA     BYTE      CS0MD2
      000000A4H   SFRSYM    DATA     BYTE      P0MDOUT
      000000F3H   SFRSYM    DATA     BYTE      CS0MD3
      000000A5H   SFRSYM    DATA     BYTE      P1MDOUT
      000000E8H.5 SFRSYM    DATA     BIT       ADC0CN0_ADINT
      000000CBH   SFRSYM    DATA     BYTE      TMR2RLH
      000000A6H   SFRSYM    DATA     BYTE      P2MDOUT
      000000A8H   SFRSYM    DATA     BYTE      IE
      00000093H   SFRSYM    DATA     BYTE      TMR3RLH
      000000F6H   SFRSYM    DATA     BYTE      EIP1
      000000F7H   SFRSYM    DATA     BYTE      EIP2
      00000080H.3 SFRSYM    DATA     BIT       LED_RED
      00000098H.2 SFRSYM    DATA     BIT       SCON0_RB8
      000000CAH   SFRSYM    DATA     BYTE      TMR2RLL
LX51 LINKER/LOCATER V4.66.30.0                                                        11/13/2019  15:40:31  PAGE 14


      000000FCH   SFRSYM    DATA     BYTE      PCA0CPH0
      00000092H   SFRSYM    DATA     BYTE      TMR3RLL
      000000EAH   SFRSYM    DATA     BYTE      PCA0CPH1
      00000098H.3 SFRSYM    DATA     BIT       SCON0_TB8
      000000B0H.7 SFRSYM    DATA     BIT       CS0CN0_CSEN
      000000F0H   SFRSYM    DATA     BIT       B_B0
      00000082H   SFRSYM    DATA     WORD      DP
      000000ECH   SFRSYM    DATA     BYTE      PCA0CPH2
      00000090H.1 SFRSYM    DATA     BIT       LED_YELLOW
      000000F0H.1 SFRSYM    DATA     BIT       B_B1
      000000C3H   SFRSYM    DATA     WORD      ADC0GT
      000000F0H.2 SFRSYM    DATA     BIT       B_B2
      000000FBH   SFRSYM    DATA     BYTE      PCA0CPL0
      000000F0H.3 SFRSYM    DATA     BIT       B_B3
      000000D9H   SFRSYM    DATA     BYTE      PCA0MD
      000000DAH   SFRSYM    DATA     BYTE      PCA0CPM0
      000000E9H   SFRSYM    DATA     BYTE      PCA0CPL1
      000000F0H.4 SFRSYM    DATA     BIT       B_B4
      000000DBH   SFRSYM    DATA     BYTE      PCA0CPM1
      000000EBH   SFRSYM    DATA     BYTE      PCA0CPL2
      000000F0H.5 SFRSYM    DATA     BIT       B_B5
      000000DCH   SFRSYM    DATA     BYTE      PCA0CPM2
      000000B8H   SFRSYM    DATA     BYTE      IP
      000000BCH   SFRSYM    DATA     BYTE      ADC0TK
      000000F0H.6 SFRSYM    DATA     BIT       B_B6
      000000C5H   SFRSYM    DATA     WORD      ADC0LT
      000000D6H   SFRSYM    DATA     BYTE      IREF0CN0
      00000098H.5 SFRSYM    DATA     BIT       SCON0_MCE
      000000F0H.7 SFRSYM    DATA     BIT       B_B7
      000000E1H   SFRSYM    DATA     BYTE      XBR0
      000000C1H   SFRSYM    DATA     BYTE      SMB0CF
      000000E2H   SFRSYM    DATA     BYTE      XBR1
      000000D2H   SFRSYM    DATA     BYTE      CS0SCAN0
      000000C0H.5 SFRSYM    DATA     BIT       SMB0CN0_STA
      000000E3H   SFRSYM    DATA     BYTE      XBR2
      000000D3H   SFRSYM    DATA     BYTE      CS0SCAN1
      00000096H   SFRSYM    DATA     BYTE      ADC0MX
      000000E0H   SFRSYM    DATA     BIT       ACC_ACC0
      000000D1H   SFRSYM    DATA     BYTE      REF0CN
      000000B2H   SFRSYM    DATA     BYTE      HFO0CN
      0000008EH   SFRSYM    DATA     BYTE      CKCON0
      000000E0H.1 SFRSYM    DATA     BIT       ACC_ACC1
      000000C9H   SFRSYM    DATA     BYTE      REG0CN
      00000085H   SFRSYM    DATA     BYTE      CRC0IN
      000000C8H.2 SFRSYM    DATA     BIT       TMR2CN0_TR2
      000000E0H.2 SFRSYM    DATA     BIT       ACC_ACC2
      000000E0H.3 SFRSYM    DATA     BIT       ACC_ACC3
      00000081H   SFRSYM    DATA     BYTE      SP
      0000009DH   SFRSYM    DATA     BYTE      CMP0MD
      000000E0H.4 SFRSYM    DATA     BIT       ACC_ACC4
      000000D8H   SFRSYM    DATA     BIT       PCA0CN0_CCF0
      000000E0H.5 SFRSYM    DATA     BIT       ACC_ACC5
      000000D8H.1 SFRSYM    DATA     BIT       PCA0CN0_CCF1
      000000E0H.6 SFRSYM    DATA     BIT       ACC_ACC6
      000000CCH   SFRSYM    DATA     WORD      TMR2
      000000D8H.2 SFRSYM    DATA     BIT       PCA0CN0_CCF2
      000000E0H.7 SFRSYM    DATA     BIT       ACC_ACC7
      00000094H   SFRSYM    DATA     WORD      TMR3
      000000B0H   SFRSYM    DATA     BIT       CS0CN0_CSCMPF
      00000080H.2 SFRSYM    DATA     BIT       LED_GREEN
      000000C0H.3 SFRSYM    DATA     BIT       SMB0CN0_ACKRQ
      000000FFH   SFRSYM    DATA     BYTE      VDM0CN
LX51 LINKER/LOCATER V4.66.30.0                                                        11/13/2019  15:40:31  PAGE 15


      000000F1H   SFRSYM    DATA     BYTE      P0MDIN
      00000098H.4 SFRSYM    DATA     BIT       SCON0_REN
      000000F2H   SFRSYM    DATA     BYTE      P1MDIN
      000000FEH   SFRSYM    DATA     BYTE      CS0THH
      000000C0H.4 SFRSYM    DATA     BIT       SMB0CN0_STO
      000000B5H   SFRSYM    DATA     BYTE      PMU0CF
      000000C7H   SFRSYM    DATA     BYTE      P0MASK
      000000BFH   SFRSYM    DATA     BYTE      P1MASK
      000000FDH   SFRSYM    DATA     BYTE      CS0THL
      000000D0H.3 SFRSYM    DATA     BIT       PSW_RS0
      000000D8H.7 SFRSYM    DATA     BIT       PCA0CN0_CF
      000000F8H.4 SFRSYM    DATA     BIT       SPI0CN0_RXOVRN
      000000D0H.4 SFRSYM    DATA     BIT       PSW_RS1
      000000C8H   SFRSYM    DATA     BIT       TMR2CN0_T2XCLK0
      000000C8H.1 SFRSYM    DATA     BIT       TMR2CN0_T2XCLK1
      000000E8H.7 SFRSYM    DATA     BIT       ADC0CN0_ADEN
      00000089H   SFRSYM    DATA     BYTE      TMOD
      00000088H   SFRSYM    DATA     BYTE      TCON
      000000B5H   SFRSYM    DATA     BYTE      PMU0MD
      000000CEH   SFRSYM    DATA     BYTE      PMU0FL
      0000009CH   SFRSYM    DATA     BYTE      CRC0FLIP
      00000090H.7 SFRSYM    DATA     BIT       ELMOS_CMD
      000000D0H   SFRSYM    DATA     BIT       PSW_PARITY
      000000A8H.4 SFRSYM    DATA     BIT       IE_ES0
      0000009FH   SFRSYM    DATA     BYTE      CMP0MX
      000000A8H.1 SFRSYM    DATA     BIT       IE_ET0
      000000A8H.3 SFRSYM    DATA     BIT       IE_ET1
      000000D4H   SFRSYM    DATA     BYTE      P0SKIP
      000000A8H.5 SFRSYM    DATA     BIT       IE_ET2
      000000D5H   SFRSYM    DATA     BYTE      P1SKIP
      000000E8H   SFRSYM    DATA     BYTE      ADC0CN0
      000000A8H   SFRSYM    DATA     BIT       IE_EX0
      000000D8H.6 SFRSYM    DATA     BIT       PCA0CN0_CR
      000000A8H.2 SFRSYM    DATA     BIT       IE_EX1
      00000098H.7 SFRSYM    DATA     BIT       SCON0_SMODE
      000000A9H   SFRSYM    DATA     BYTE      CLKSEL
      000000F8H   SFRSYM    DATA     BIT       SPI0CN0_SPIEN
      000000F0H   SFRSYM    DATA     BYTE      B
      000000BEH   SFRSYM    DATA     BYTE      ADC0H
      0000009EH   SFRSYM    DATA     BYTE      CRC0AUTO
      000000B0H.4 SFRSYM    DATA     BIT       CS0CN0_CSBUSY
      000000E8H.6 SFRSYM    DATA     BIT       ADC0CN0_ADBMEN
      000000CAH   SFRSYM    DATA     WORD      TMR2RL
      000000BDH   SFRSYM    DATA     BYTE      ADC0L
      00000092H   SFRSYM    DATA     WORD      TMR3RL
      000000D8H   SFRSYM    DATA     BYTE      PCA0CN0
      000000E0H   SFRSYM    DATA     BYTE      ACC
      00000080H.5 SFRSYM    DATA     BIT       UART_RX
      000000FBH   SFRSYM    DATA     WORD      PCA0CP0
      00000080H.4 SFRSYM    DATA     BIT       UART_TX
      000000E9H   SFRSYM    DATA     WORD      PCA0CP1
      000000EBH   SFRSYM    DATA     WORD      PCA0CP2
      00000084H   SFRSYM    DATA     BYTE      CRC0CN0
      0000008CH   SFRSYM    DATA     BYTE      TH0
      000000B8H.4 SFRSYM    DATA     BIT       IP_PS0
      0000008DH   SFRSYM    DATA     BYTE      TH1
      000000FAH   SFRSYM    DATA     BYTE      PCA0H
      000000B8H.1 SFRSYM    DATA     BIT       IP_PT0
      000000B8H.3 SFRSYM    DATA     BIT       IP_PT1
      000000C0H.2 SFRSYM    DATA     BIT       SMB0CN0_ARBLOST
      000000B8H.5 SFRSYM    DATA     BIT       IP_PT2
      0000008AH   SFRSYM    DATA     BYTE      TL0
LX51 LINKER/LOCATER V4.66.30.0                                                        11/13/2019  15:40:31  PAGE 16


      000000AAH   SFRSYM    DATA     BYTE      CS0CF
      000000F8H.1 SFRSYM    DATA     BIT       SPI0CN0_TXBMT
      000000D0H.5 SFRSYM    DATA     BIT       PSW_F0
      000000A8H.6 SFRSYM    DATA     BIT       IE_ESPI0
      0000008BH   SFRSYM    DATA     BYTE      TL1
      000000F9H   SFRSYM    DATA     BYTE      PCA0L
      000000C0H   SFRSYM    DATA     BIT       SMB0CN0_SI
      000000D0H.1 SFRSYM    DATA     BIT       PSW_F1
      00000080H   SFRSYM    DATA     BIT       P0_B0
      000000B8H   SFRSYM    DATA     BIT       IP_PX0
      00000090H   SFRSYM    DATA     BIT       P1_B0
      00000080H.1 SFRSYM    DATA     BIT       P0_B1
      000000B8H.2 SFRSYM    DATA     BIT       IP_PX1
      000000EEH   SFRSYM    DATA     BYTE      CS0DH
      0000009BH   SFRSYM    DATA     BYTE      CMP0CN0
      00000088H.1 SFRSYM    DATA     BIT       TCON_IE0
      00000090H.1 SFRSYM    DATA     BIT       P1_B1
      00000080H.2 SFRSYM    DATA     BIT       P0_B2
      00000088H.3 SFRSYM    DATA     BIT       TCON_IE1
      00000090H.2 SFRSYM    DATA     BIT       P1_B2
      00000080H.3 SFRSYM    DATA     BIT       P0_B3
      000000C0H   SFRSYM    DATA     BYTE      SMB0CN0
      00000090H.3 SFRSYM    DATA     BIT       P1_B3
      00000080H.4 SFRSYM    DATA     BIT       P0_B4
      00000090H.4 SFRSYM    DATA     BIT       P1_B4
      00000080H.5 SFRSYM    DATA     BIT       P0_B5
      000000EDH   SFRSYM    DATA     BYTE      CS0DL
      00000090H.5 SFRSYM    DATA     BIT       P1_B5
      00000080H.6 SFRSYM    DATA     BIT       P0_B6
      00000090H.6 SFRSYM    DATA     BIT       P1_B6
      00000080H.7 SFRSYM    DATA     BIT       P0_B7
      00000090H.7 SFRSYM    DATA     BIT       P1_B7
      000000A0H.7 SFRSYM    DATA     BIT       P2_B7
      00000083H   SFRSYM    DATA     BYTE      DPH
      000000C4H   SFRSYM    DATA     BYTE      ADC0GTH
      000000C8H.7 SFRSYM    DATA     BIT       TMR2CN0_TF2H
      000000C8H.3 SFRSYM    DATA     BIT       TMR2CN0_T2SPLIT
      000000D0H.6 SFRSYM    DATA     BIT       PSW_AC
      000000F8H   SFRSYM    DATA     BYTE      SPI0CN0
      000000B3H   SFRSYM    DATA     BYTE      HFO0CAL
      000000DEH   SFRSYM    DATA     BYTE      CS0SE
      00000088H.5 SFRSYM    DATA     BIT       TCON_TF0
      00000098H   SFRSYM    DATA     BIT       SCON0_RI
      00000082H   SFRSYM    DATA     BYTE      DPL
      00000088H.7 SFRSYM    DATA     BIT       TCON_TF1
      00000099H   SFRSYM    DATA     BYTE      SBUF0
      00000087H   SFRSYM    DATA     BYTE      PCON0
      000000B9H   SFRSYM    DATA     BYTE      IREF0CF
      000000C3H   SFRSYM    DATA     BYTE      ADC0GTL
      000000C8H.6 SFRSYM    DATA     BIT       TMR2CN0_TF2L
      00000098H.1 SFRSYM    DATA     BIT       SCON0_TI
      000000E8H   SFRSYM    DATA     BIT       ADC0CN0_ADCM0
      000000C6H   SFRSYM    DATA     BYTE      ADC0LTH
      00000088H   SFRSYM    DATA     BIT       TCON_IT0
      000000B0H.1 SFRSYM    DATA     BIT       CS0CN0_CSPME
      000000E8H.1 SFRSYM    DATA     BIT       ADC0CN0_ADCM1
      000000EFH   SFRSYM    DATA     BYTE      RSTSRC
      000000D7H   SFRSYM    DATA     BYTE      P0MAT
      00000086H   SFRSYM    DATA     BYTE      CRC0DAT
      00000088H.2 SFRSYM    DATA     BIT       TCON_IT1
      000000E8H.2 SFRSYM    DATA     BIT       ADC0CN0_ADCM2
      00000098H   SFRSYM    DATA     BYTE      SCON0
LX51 LINKER/LOCATER V4.66.30.0                                                        11/13/2019  15:40:31  PAGE 17


      000000CFH   SFRSYM    DATA     BYTE      P1MAT
      000000DEH   SFRSYM    DATA     BYTE      CS0PM
      000000E8H.3 SFRSYM    DATA     BIT       ADC0CN0_ADWINT
      000000E8H.4 SFRSYM    DATA     BIT       ADC0CN0_ADBUSY
      000000F5H   SFRSYM    DATA     BYTE      SMB0ADM
      000000C5H   SFRSYM    DATA     BYTE      ADC0LTL
      000000F8H.5 SFRSYM    DATA     BIT       SPI0CN0_MODF
      000000B8H.6 SFRSYM    DATA     BIT       IP_PSPI0
      000000B0H.6 SFRSYM    DATA     BIT       CS0CN0_CSEOS
      000000C8H   SFRSYM    DATA     BYTE      TMR2CN0
      00000091H   SFRSYM    DATA     BYTE      TMR3CN0
      000000F4H   SFRSYM    DATA     BYTE      SMB0ADR
      00000088H.4 SFRSYM    DATA     BIT       TCON_TR0
      000000B0H.5 SFRSYM    DATA     BIT       CS0CN0_CSINT
      000000ABH   SFRSYM    DATA     BYTE      CS0MX
      000000C8H.4 SFRSYM    DATA     BIT       TMR2CN0_TF2CEN
      00000088H.6 SFRSYM    DATA     BIT       TCON_TR1
      000000C2H   SFRSYM    DATA     BYTE      SMB0DAT
      00000099H   SFRSYM    DATA     BYTE      P0DRV
      000000DDH   SFRSYM    DATA     BYTE      CS0SS
      000000CDH   SFRSYM    DATA     BYTE      TMR2H
      000000A1H   SFRSYM    DATA     BYTE      SPI0CFG
      0000009BH   SFRSYM    DATA     BYTE      P1DRV
      00000095H   SFRSYM    DATA     BYTE      TMR3H
      0000009DH   SFRSYM    DATA     BYTE      P2DRV
      0000009AH   SFRSYM    DATA     BYTE      CRC0CNT
      000000CCH   SFRSYM    DATA     BYTE      TMR2L
      000000ACH   SFRSYM    DATA     BYTE      RTC0ADR
      000000F8H.7 SFRSYM    DATA     BIT       SPI0CN0_SPIF
      00000094H   SFRSYM    DATA     BYTE      TMR3L
      000000BBH   SFRSYM    DATA     BYTE      ADC0PWR
      000000A8H.7 SFRSYM    DATA     BIT       IE_EA
      000000ADH   SFRSYM    DATA     BYTE      RTC0DAT
      000000B0H.3 SFRSYM    DATA     BIT       CS0CN0_CSCMPEN
      000000B6H   SFRSYM    DATA     BYTE      FLSCL
      000000C8H.5 SFRSYM    DATA     BIT       TMR2CN0_TF2LEN
      000000F8H.6 SFRSYM    DATA     BIT       SPI0CN0_WCOL
      000000F8H.2 SFRSYM    DATA     BIT       SPI0CN0_NSSMD0
      000000D0H.7 SFRSYM    DATA     BIT       PSW_CY
      000000A3H   SFRSYM    DATA     BYTE      SPI0DAT
      000000F8H.3 SFRSYM    DATA     BIT       SPI0CN0_NSSMD1
      000000BDH   SFRSYM    DATA     WORD      ADC0
      0000008EH   SFRSYM    DATA     BYTE      TOFFH
      000000D0H   SFRSYM    DATA     BYTE      PSW
      000000DFH   SFRSYM    DATA     BYTE      PCA0PWM
      000000E2H   SFRSYM    DATA     BYTE      REVID
      0000008DH   SFRSYM    DATA     BYTE      TOFFL
      000000B7H   SFRSYM    DATA     BYTE      FLKEY
      000000BAH   SFRSYM    DATA     BYTE      ADC0AC
      01000900H   SYMBOL    CODE     ---       _?ix1000
      01000A28H   SYMBOL    CODE     ---       _?ix1010
      01000908H   SYMBOL    CODE     ---       _?ix1001
      01000A30H   SYMBOL    CODE     ---       _?ix1011
      0100092CH   SYMBOL    CODE     ---       _?ix1002
      01000A38H   SYMBOL    CODE     ---       _?ix1012
      0100094EH   SYMBOL    CODE     ---       _?ix1003
      01000A40H   SYMBOL    CODE     ---       _?ix1013
      01000966H   SYMBOL    CODE     ---       _?ix1004
      01000969H   SYMBOL    CODE     ---       _?ix1005
      0100098DH   SYMBOL    CODE     ---       _?ix1006
      01000999H   SYMBOL    CODE     ---       _?ix1007
      0100099EH   SYMBOL    CODE     ---       _?ix1008
LX51 LINKER/LOCATER V4.66.30.0                                                        11/13/2019  15:40:31  PAGE 18


      010009E3H   SYMBOL    CODE     ---       _?ix1009

      010013F8H   BLOCK     CODE     ---       LVL=0
      00000006H   SYMBOL    DATA     INT       us
      010013F8H   BLOCK     CODE     NEAR LAB  LVL=1
      0000000EH   SYMBOL    DATA     INT       i
      ---         BLOCKEND  ---      ---       LVL=1
      010013F8H   LINE      CODE     ---       #112
      010013F8H   LINE      CODE     ---       #113
      010013F8H   LINE      CODE     ---       #114
      01001403H   LINE      CODE     ---       #115
      01001417H   LINE      CODE     ---       #116
      ---         BLOCKEND  ---      ---       LVL=0

      01000003H   BLOCK     CODE     VOID      LVL=0
      ---         BLOCKEND  ---      ---       LVL=0

      01000007H   BLOCK     CODE     ---       LVL=0
      00000006H   SYMBOL    DATA     INT       ms
      0000000CH   SYMBOL    DATA     INT       i
      01000007H   BLOCK     CODE     NEAR LAB  LVL=1
      0000000CH   SYMBOL    DATA     INT       i
      ---         BLOCKEND  ---      ---       LVL=1
      01000007H   LINE      CODE     ---       #117
      01000007H   LINE      CODE     ---       #118
      01000007H   LINE      CODE     ---       #119
      0100000BH   LINE      CODE     ---       #120
      01000028H   LINE      CODE     ---       #121
      ---         BLOCKEND  ---      ---       LVL=0

      010013A7H   BLOCK     CODE     ---       LVL=0
      00000006H   SYMBOL    DATA     INT       a
      00000004H   SYMBOL    DATA     INT       b
      010013A7H   LINE      CODE     ---       #123
      010013A7H   LINE      CODE     ---       #124
      010013A7H   LINE      CODE     ---       #125
      010013B4H   LINE      CODE     ---       #126
      010013BBH   LINE      CODE     ---       #127
      010013BBH   LINE      CODE     ---       #128
      010013C8H   LINE      CODE     ---       #129
      010013D0H   LINE      CODE     ---       #130
      010013D0H   LINE      CODE     ---       #131
      010013D0H   LINE      CODE     ---       #132
      010013D3H   LINE      CODE     ---       #133
      010013D3H   LINE      CODE     ---       #134
      ---         BLOCKEND  ---      ---       LVL=0

      010014D7H   BLOCK     CODE     VOID      LVL=0
      ---         BLOCKEND  ---      ---       LVL=0

      010014DBH   BLOCK     CODE     ---       LVL=0
      00000006H   SYMBOL    DATA     INT       setting
      010014DBH   LINE      CODE     ---       #135
      010014DBH   LINE      CODE     ---       #136
      010014DBH   LINE      CODE     ---       #137
      010014DFH   LINE      CODE     ---       #138
      010014E2H   LINE      CODE     ---       #140
      010014E4H   LINE      CODE     ---       #141
      ---         BLOCKEND  ---      ---       LVL=0

      010012AEH   BLOCK     CODE     VOID      LVL=0
      ---         BLOCKEND  ---      ---       LVL=0
LX51 LINKER/LOCATER V4.66.30.0                                                        11/13/2019  15:40:31  PAGE 19



      010012B2H   BLOCK     CODE     ---       LVL=0
      00000004H   SYMBOL    DATA     INT       bitt
      010012B2H   LINE      CODE     ---       #146
      010012B6H   LINE      CODE     ---       #147
      010012B6H   LINE      CODE     ---       #148
      010012BCH   LINE      CODE     ---       #149
      010012C4H   LINE      CODE     ---       #150
      010012C9H   LINE      CODE     ---       #151
      010012CCH   LINE      CODE     ---       #152
      010012D2H   LINE      CODE     ---       #153
      010012D4H   LINE      CODE     ---       #154
      010012D4H   LINE      CODE     ---       #155
      010012DBH   LINE      CODE     ---       #156
      010012DEH   LINE      CODE     ---       #157
      010012E7H   LINE      CODE     ---       #158
      010012E7H   LINE      CODE     ---       #159
      ---         BLOCKEND  ---      ---       LVL=0

      01001434H   BLOCK     CODE     ---       LVL=0
      01001434H   LINE      CODE     ---       #161
      01001434H   LINE      CODE     ---       #162
      01001434H   LINE      CODE     ---       #163
      0100143AH   LINE      CODE     ---       #164
      01001443H   LINE      CODE     ---       #165
      01001446H   LINE      CODE     ---       #166
      ---         BLOCKEND  ---      ---       LVL=0

      0100149AH   BLOCK     CODE     ---       LVL=0
      0100149AH   LINE      CODE     ---       #169
      0100149AH   LINE      CODE     ---       #170
      0100149AH   LINE      CODE     ---       #171
      010014A0H   LINE      CODE     ---       #173
      010014A9H   LINE      CODE     ---       #174
      ---         BLOCKEND  ---      ---       LVL=0

      010013D4H   BLOCK     CODE     ---       LVL=0
      010013D4H   LINE      CODE     ---       #178
      010013D4H   LINE      CODE     ---       #179
      010013D4H   LINE      CODE     ---       #180
      010013DAH   LINE      CODE     ---       #181
      010013E3H   LINE      CODE     ---       #182
      010013E6H   LINE      CODE     ---       #183
      010013EFH   LINE      CODE     ---       #184
      010013F2H   LINE      CODE     ---       #185
      ---         BLOCKEND  ---      ---       LVL=0

      0100002EH   BLOCK     CODE     ---       LVL=0
      0100002EH   LINE      CODE     ---       #187
      0100002EH   LINE      CODE     ---       #188
      0100002EH   LINE      CODE     ---       #189
      01000034H   LINE      CODE     ---       #190
      0100003DH   LINE      CODE     ---       #191
      01000040H   LINE      CODE     ---       #192
      01000049H   LINE      CODE     ---       #193
      0100004CH   LINE      CODE     ---       #194
      ---         BLOCKEND  ---      ---       LVL=0
      00000006H   SYMBOL    DATA     INT       i
      00000004H   SYMBOL    DATA     INT       timeout

      01000A48H   BLOCK     CODE     VOID      LVL=0
      ---         BLOCKEND  ---      ---       LVL=0
LX51 LINKER/LOCATER V4.66.30.0                                                        11/13/2019  15:40:31  PAGE 20



      01000A52H   BLOCK     CODE     ---       LVL=0
      00000036H   SYMBOL    DATA     ---       buffer
      00000039H   SYMBOL    DATA     INT       h
      0000003BH   SYMBOL    DATA     INT       len
      01000A5CH   BLOCK     CODE     NEAR LAB  LVL=1
      0000003BH   SYMBOL    DATA     INT       len
      ---         BLOCKEND  ---      ---       LVL=1
      01000A52H   LINE      CODE     ---       #275
      01000A5CH   LINE      CODE     ---       #276
      01000A5CH   LINE      CODE     ---       #277
      01000A61H   LINE      CODE     ---       #278
      01000A71H   LINE      CODE     ---       #279
      01000A77H   LINE      CODE     ---       #280
      01000A88H   LINE      CODE     ---       #281
      01000AAFH   LINE      CODE     ---       #282
      01000AD6H   LINE      CODE     ---       #283
      01000AFDH   LINE      CODE     ---       #284
      01000B14H   LINE      CODE     ---       #286
      01000B17H   LINE      CODE     ---       #287
      01000B27H   LINE      CODE     ---       #288
      01000B2DH   LINE      CODE     ---       #289
      01000B44H   LINE      CODE     ---       #290
      01000B6BH   LINE      CODE     ---       #291
      01000B92H   LINE      CODE     ---       #292
      01000BA9H   LINE      CODE     ---       #294
      01000BACH   LINE      CODE     ---       #295
      01000BB9H   LINE      CODE     ---       #296
      01000BBFH   LINE      CODE     ---       #297
      01000BD6H   LINE      CODE     ---       #298
      01000BFDH   LINE      CODE     ---       #299
      01000C14H   LINE      CODE     ---       #301
      01000C16H   LINE      CODE     ---       #302
      01000C23H   LINE      CODE     ---       #303
      01000C29H   LINE      CODE     ---       #304
      01000C40H   LINE      CODE     ---       #305
      01000C5AH   LINE      CODE     ---       #307
      01000C5CH   LINE      CODE     ---       #308
      01000C5CH   LINE      CODE     ---       #309
      01000C62H   LINE      CODE     ---       #310
      01000C6FH   LINE      CODE     ---       #311
      01000C6FH   LINE      CODE     ---       #313
      01000C73H   LINE      CODE     ---       #314
      ---         BLOCKEND  ---      ---       LVL=0

      01001418H   BLOCK     CODE     ---       LVL=0
      01001418H   LINE      CODE     ---       #315
      01001418H   LINE      CODE     ---       #316
      01001418H   LINE      CODE     ---       #317
      0100141BH   LINE      CODE     ---       #318
      01001421H   LINE      CODE     ---       #319
      01001427H   LINE      CODE     ---       #320
      0100142DH   LINE      CODE     ---       #321
      ---         BLOCKEND  ---      ---       LVL=0

      0100144FH   BLOCK     CODE     ---       LVL=0
      0100144FH   LINE      CODE     ---       #323
      0100144FH   LINE      CODE     ---       #324
      0100144FH   LINE      CODE     ---       #325
      01001452H   LINE      CODE     ---       #326
      01001458H   LINE      CODE     ---       #327
      0100145EH   LINE      CODE     ---       #328
LX51 LINKER/LOCATER V4.66.30.0                                                        11/13/2019  15:40:31  PAGE 21


      01001464H   LINE      CODE     ---       #329
      ---         BLOCKEND  ---      ---       LVL=0

      01000C74H   BLOCK     CODE     ---       LVL=0
      01000C74H   BLOCK     CODE     NEAR LAB  LVL=1
      0000000CH   SYMBOL    DATA     INT       i
      0000000EH   SYMBOL    DATA     ---       npulses_a
      00000011H   SYMBOL    DATA     ---       tmeas_a
      00000014H   SYMBOL    DATA     ---       thresscale_a
      00000016H   SYMBOL    DATA     ---       npulses_b
      00000019H   SYMBOL    DATA     ---       tmeas_b
      0000001CH   SYMBOL    DATA     ---       thresscale_b
      0000001EH   SYMBOL    DATA     ---       npulses_c
      00000021H   SYMBOL    DATA     ---       tmeas_c
      00000024H   SYMBOL    DATA     ---       thresscale_c
      00000026H   SYMBOL    DATA     CHAR      echo_deb
      00000001H   SYMBOL    DATA     CHAR      rt_cfg
      00000007H   SYMBOL    DATA     CHAR      nftg
      00000006H   SYMBOL    DATA     CHAR      ftc
      00000005H   SYMBOL    DATA     CHAR      epd
      00000027H   SYMBOL    DATA     ---       stc_cfg
      00000029H   SYMBOL    DATA     ---       stc_start
      0000002BH   SYMBOL    DATA     ---       noise_cfg
      00000004H   SYMBOL    DATA     CHAR      filter_cfg
      0000002DH   SYMBOL    DATA     ---       parity
      00000030H   SYMBOL    DATA     ---       meas_setup_bit
      ---         BLOCKEND  ---      ---       LVL=1
      01000C74H   LINE      CODE     ---       #430
      01000C74H   LINE      CODE     ---       #431
      01000C74H   LINE      CODE     ---       #451
      01000C87H   LINE      CODE     ---       #452
      01000C9AH   LINE      CODE     ---       #453
      01000C9DH   LINE      CODE     ---       #454
      01000CA0H   LINE      CODE     ---       #455
      01000CA3H   LINE      CODE     ---       #456
      01000CA6H   LINE      CODE     ---       #457
      01000CA9H   LINE      CODE     ---       #458
      01000CABH   LINE      CODE     ---       #459
      01000CAEH   LINE      CODE     ---       #460
      01000CB0H   LINE      CODE     ---       #461
      01000CB2H   LINE      CODE     ---       #462
      01000CB4H   LINE      CODE     ---       #463
      01000CB7H   LINE      CODE     ---       #464
      01000CBAH   LINE      CODE     ---       #465
      01000CBDH   LINE      CODE     ---       #466
      01000CBFH   LINE      CODE     ---       #467
      01000CC2H   LINE      CODE     ---       #468
      01000CC4H   LINE      CODE     ---       #469
      01000CC7H   LINE      CODE     ---       #470
      01000CC9H   LINE      CODE     ---       #471
      01000CCCH   LINE      CODE     ---       #472
      01000CCFH   LINE      CODE     ---       #473
      01000CD1H   LINE      CODE     ---       #474
      01000CD3H   LINE      CODE     ---       #475
      01000CD6H   LINE      CODE     ---       #476
      01000CD8H   LINE      CODE     ---       #477
      01000CDAH   LINE      CODE     ---       #478
      01000CDBH   LINE      CODE     ---       #479
      01000CDDH   LINE      CODE     ---       #480
      01000CDEH   LINE      CODE     ---       #481
      01000CE0H   LINE      CODE     ---       #482
      01000CE3H   LINE      CODE     ---       #483
LX51 LINKER/LOCATER V4.66.30.0                                                        11/13/2019  15:40:31  PAGE 22


      01000CE5H   LINE      CODE     ---       #484
      01000CE7H   LINE      CODE     ---       #485
      01000CE9H   LINE      CODE     ---       #486
      01000CECH   LINE      CODE     ---       #487
      01000CEEH   LINE      CODE     ---       #488
      01000CEFH   LINE      CODE     ---       #489
      01000CF3H   LINE      CODE     ---       #490
      01000D01H   LINE      CODE     ---       #491
      01000D0FH   LINE      CODE     ---       #492
      01000D1DH   LINE      CODE     ---       #493
      01000D2BH   LINE      CODE     ---       #494
      01000D39H   LINE      CODE     ---       #495
      01000D47H   LINE      CODE     ---       #496
      01000D55H   LINE      CODE     ---       #497
      01000D5AH   LINE      CODE     ---       #498
      01000D68H   LINE      CODE     ---       #499
      01000D76H   LINE      CODE     ---       #500
      01000D84H   LINE      CODE     ---       #501
      01000D92H   LINE      CODE     ---       #502
      01000DA0H   LINE      CODE     ---       #503
      01000DAEH   LINE      CODE     ---       #504
      01000DBCH   LINE      CODE     ---       #505
      01000DBFH   LINE      CODE     ---       #506
      01000DC1H   LINE      CODE     ---       #507
      01000DC3H   LINE      CODE     ---       #508
      01000DC5H   LINE      CODE     ---       #509
      01000DC7H   LINE      CODE     ---       #510
      01000DC9H   LINE      CODE     ---       #512
      01000DCEH   LINE      CODE     ---       #513
      01000DDBH   LINE      CODE     ---       #514
      01000DE3H   LINE      CODE     ---       #515
      01000DE5H   LINE      CODE     ---       #516
      01000DE5H   LINE      CODE     ---       #517
      01000DE5H   LINE      CODE     ---       #518
      01000DEEH   LINE      CODE     ---       #519
      01000DF0H   LINE      CODE     ---       #520
      01000DF0H   LINE      CODE     ---       #521
      01000DF7H   LINE      CODE     ---       #522
      01000DF9H   LINE      CODE     ---       #523
      01000DF9H   LINE      CODE     ---       #524
      01000E07H   LINE      CODE     ---       #525
      01000E0AH   LINE      CODE     ---       #526
      01000E0DH   LINE      CODE     ---       #527
      01000E10H   LINE      CODE     ---       #529
      01000E13H   LINE      CODE     ---       #530
      01000E18H   LINE      CODE     ---       #531
      01000E26H   LINE      CODE     ---       #532
      01000E39H   LINE      CODE     ---       #533
      01000E3EH   LINE      CODE     ---       #534
      01000E4CH   LINE      CODE     ---       #535
      01000E5FH   LINE      CODE     ---       #536
      ---         BLOCKEND  ---      ---       LVL=0

      01000E60H   BLOCK     CODE     ---       LVL=0
      01000E60H   BLOCK     CODE     NEAR LAB  LVL=1
      0000000CH   SYMBOL    DATA     INT       i
      0000000EH   SYMBOL    DATA     INT       j
      00000010H   SYMBOL    DATA     ---       thval
      0000001CH   SYMBOL    DATA     CHAR      thsft_cfg
      0000001DH   SYMBOL    DATA     CHAR      atg_cfg
      0000001EH   SYMBOL    DATA     CHAR      atg_tau
      0000001FH   SYMBOL    DATA     CHAR      atg_alpha
LX51 LINKER/LOCATER V4.66.30.0                                                        11/13/2019  15:40:31  PAGE 23


      00000020H   SYMBOL    DATA     CHAR      thresscale_rec
      00000021H   SYMBOL    DATA     ---       parity
      00000026H   SYMBOL    DATA     ---       thres_setup_bit
      ---         BLOCKEND  ---      ---       LVL=1
      01000E60H   LINE      CODE     ---       #537
      01000E60H   LINE      CODE     ---       #538
      01000E60H   LINE      CODE     ---       #540
      01000E73H   LINE      CODE     ---       #543
      01000E76H   LINE      CODE     ---       #544
      01000E78H   LINE      CODE     ---       #545
      01000E7BH   LINE      CODE     ---       #546
      01000E7DH   LINE      CODE     ---       #547
      01000E80H   LINE      CODE     ---       #548
      01000E91H   LINE      CODE     ---       #549
      01000EA4H   LINE      CODE     ---       #552
      01000EA9H   LINE      CODE     ---       #553
      01000EBFH   LINE      CODE     ---       #554
      01000ECCH   LINE      CODE     ---       #555
      01000ECCH   LINE      CODE     ---       #556
      01000ED1H   LINE      CODE     ---       #557
      01000EF8H   LINE      CODE     ---       #558
      01000F0AH   LINE      CODE     ---       #559
      01000F0CH   LINE      CODE     ---       #560
      01000F1CH   LINE      CODE     ---       #561
      01000F1CH   LINE      CODE     ---       #562
      01000F2AH   LINE      CODE     ---       #563
      01000F40H   LINE      CODE     ---       #565
      01000F49H   LINE      CODE     ---       #566
      01000F4FH   LINE      CODE     ---       #567
      01000F58H   LINE      CODE     ---       #568
      01000F5EH   LINE      CODE     ---       #569
      01000F67H   LINE      CODE     ---       #570
      01000F6DH   LINE      CODE     ---       #571
      01000F73H   LINE      CODE     ---       #572
      01000F7CH   LINE      CODE     ---       #573
      01000F82H   LINE      CODE     ---       #575
      01000F87H   LINE      CODE     ---       #576
      01000F94H   LINE      CODE     ---       #577
      01000F9CH   LINE      CODE     ---       #578
      01000F9EH   LINE      CODE     ---       #579
      01000F9EH   LINE      CODE     ---       #580
      01000F9EH   LINE      CODE     ---       #581
      01000FA7H   LINE      CODE     ---       #582
      01000FA9H   LINE      CODE     ---       #583
      01000FA9H   LINE      CODE     ---       #584
      01000FB0H   LINE      CODE     ---       #585
      01000FB2H   LINE      CODE     ---       #586
      01000FB2H   LINE      CODE     ---       #587
      01000FBAH   LINE      CODE     ---       #588
      01000FBCH   LINE      CODE     ---       #589
      01000FBCH   LINE      CODE     ---       #590
      01000FC4H   LINE      CODE     ---       #591
      01000FC6H   LINE      CODE     ---       #592
      01000FC6H   LINE      CODE     ---       #593
      01000FD4H   LINE      CODE     ---       #594
      01000FD7H   LINE      CODE     ---       #595
      01000FDAH   LINE      CODE     ---       #596
      01000FDDH   LINE      CODE     ---       #597
      01000FE0H   LINE      CODE     ---       #598
      01000FE3H   LINE      CODE     ---       #599
      01000FE6H   LINE      CODE     ---       #601
      01000FEBH   LINE      CODE     ---       #602
LX51 LINKER/LOCATER V4.66.30.0                                                        11/13/2019  15:40:31  PAGE 24


      01000FF9H   LINE      CODE     ---       #603
      0100100CH   LINE      CODE     ---       #605
      01001011H   LINE      CODE     ---       #606
      0100101FH   LINE      CODE     ---       #607
      01001032H   LINE      CODE     ---       #608
      ---         BLOCKEND  ---      ---       LVL=0

      010014C5H   BLOCK     CODE     ---       LVL=0
      00000006H   SYMBOL    DATA     INT       uplimit
      010014C5H   LINE      CODE     ---       #633
      010014C5H   LINE      CODE     ---       #634
      010014C5H   LINE      CODE     ---       #635
      010014C7H   LINE      CODE     ---       #636
      010014D4H   LINE      CODE     ---       #637
      010014D6H   LINE      CODE     ---       #638
      ---         BLOCKEND  ---      ---       LVL=0

      01000056H   BLOCK     CODE     ---       LVL=0
      0000000CH   SYMBOL    DATA     INT       cmd
      0100005AH   BLOCK     CODE     NEAR LAB  LVL=1
      0000000EH   SYMBOL    DATA     INT       distences
      00000010H   SYMBOL    DATA     INT       len
      00000012H   SYMBOL    DATA     INT       b
      00000014H   SYMBOL    DATA     ---       buf1
      0000001CH   SYMBOL    DATA     ---       buf2
      00000024H   SYMBOL    DATA     ---       buf3
      0000002CH   SYMBOL    DATA     ---       dat
      00000034H   SYMBOL    DATA     INT       firlow_long
      ---         BLOCKEND  ---      ---       LVL=1
      01000056H   LINE      CODE     ---       #639
      0100005AH   LINE      CODE     ---       #640
      0100005AH   LINE      CODE     ---       #641
      0100005FH   LINE      CODE     ---       #642
      01000063H   LINE      CODE     ---       #643
      01000067H   LINE      CODE     ---       #644
      01000078H   LINE      CODE     ---       #645
      0100008BH   LINE      CODE     ---       #646
      0100009EH   LINE      CODE     ---       #647
      010000B1H   LINE      CODE     ---       #648
      010000B6H   LINE      CODE     ---       #649
      010000BEH   LINE      CODE     ---       #650
      010000C1H   LINE      CODE     ---       #651
      010000CCH   LINE      CODE     ---       #652
      010000CEH   LINE      CODE     ---       #653
      010000D6H   LINE      CODE     ---       #654
      010000D9H   LINE      CODE     ---       #655
      010000DBH   LINE      CODE     ---       #656
      010000DBH   LINE      CODE     ---       #657
      010000DEH   LINE      CODE     ---       #658
      010000DEH   LINE      CODE     ---       #659
      010000E3H   LINE      CODE     ---       #660
      010000E8H   LINE      CODE     ---       #661
      010000F3H   LINE      CODE     ---       #662
      010000F3H   LINE      CODE     ---       #663
      010000FCH   LINE      CODE     ---       #664
      01000101H   LINE      CODE     ---       #665
      01000107H   LINE      CODE     ---       #666
      01000107H   LINE      CODE     ---       #667
      01000112H   LINE      CODE     ---       #668
      01000117H   LINE      CODE     ---       #669
      0100011DH   LINE      CODE     ---       #670
      0100011DH   LINE      CODE     ---       #671
LX51 LINKER/LOCATER V4.66.30.0                                                        11/13/2019  15:40:31  PAGE 25


      01000128H   LINE      CODE     ---       #672
      0100012DH   LINE      CODE     ---       #673
      01000133H   LINE      CODE     ---       #674
      01000133H   LINE      CODE     ---       #675
      0100013EH   LINE      CODE     ---       #676
      01000143H   LINE      CODE     ---       #677
      01000149H   LINE      CODE     ---       #678
      01000149H   LINE      CODE     ---       #679
      0100014BH   LINE      CODE     ---       #680
      0100014EH   LINE      CODE     ---       #682
      01000170H   LINE      CODE     ---       #683
      01000170H   LINE      CODE     ---       #684
      01000178H   LINE      CODE     ---       #686
      0100017BH   LINE      CODE     ---       #687
      0100017BH   LINE      CODE     ---       #688
      01000183H   LINE      CODE     ---       #690
      01000186H   LINE      CODE     ---       #691
      01000186H   LINE      CODE     ---       #692
      01000193H   LINE      CODE     ---       #694
      01000199H   LINE      CODE     ---       #695
      010001A0H   LINE      CODE     ---       #696
      010001ADH   LINE      CODE     ---       #697
      010001BAH   LINE      CODE     ---       #698
      010001C7H   LINE      CODE     ---       #700
      010001CEH   LINE      CODE     ---       #701
      010001E4H   LINE      CODE     ---       #702
      010001EAH   LINE      CODE     ---       #703
      01000228H   LINE      CODE     ---       #711
      0100022BH   LINE      CODE     ---       #712
      0100022BH   LINE      CODE     ---       #713
      0100022BH   LINE      CODE     ---       #714
      01000232H   LINE      CODE     ---       #715
      01000248H   LINE      CODE     ---       #728
      01000255H   LINE      CODE     ---       #730
      0100025BH   LINE      CODE     ---       #731
      01000263H   LINE      CODE     ---       #732
      01000263H   LINE      CODE     ---       #733
      01000263H   LINE      CODE     ---       #734
      01000263H   LINE      CODE     ---       #735
      01000263H   LINE      CODE     ---       #736
      01000266H   LINE      CODE     ---       #737
      0100027CH   LINE      CODE     ---       #738
      01000282H   LINE      CODE     ---       #740
      010002C1H   LINE      CODE     ---       #742
      010002C7H   LINE      CODE     ---       #743
      010002D1H   LINE      CODE     ---       #744
      010002D1H   LINE      CODE     ---       #745
      010002D1H   LINE      CODE     ---       #746
      010002D1H   LINE      CODE     ---       #747
      010002D1H   LINE      CODE     ---       #748
      010002D3H   LINE      CODE     ---       #750
      010002F6H   LINE      CODE     ---       #751
      010002FCH   LINE      CODE     ---       #752
      0100033BH   LINE      CODE     ---       #753
      01000341H   LINE      CODE     ---       #754
      0100034EH   LINE      CODE     ---       #755
      01000355H   LINE      CODE     ---       #756
      01000362H   LINE      CODE     ---       #757
      0100036FH   LINE      CODE     ---       #758
      01000377H   LINE      CODE     ---       #760
      0100037AH   LINE      CODE     ---       #761
      01000387H   LINE      CODE     ---       #762
LX51 LINKER/LOCATER V4.66.30.0                                                        11/13/2019  15:40:31  PAGE 26


      0100038FH   LINE      CODE     ---       #763
      01000392H   LINE      CODE     ---       #764
      01000392H   LINE      CODE     ---       #765
      010003D1H   LINE      CODE     ---       #766
      010003D7H   LINE      CODE     ---       #767
      01000419H   LINE      CODE     ---       #768
      01000429H   LINE      CODE     ---       #769
      01000436H   LINE      CODE     ---       #770
      01000443H   LINE      CODE     ---       #771
      0100044BH   LINE      CODE     ---       #772
      0100044BH   LINE      CODE     ---       #775
      0100044DH   LINE      CODE     ---       #776
      0100044DH   LINE      CODE     ---       #777
      0100045AH   LINE      CODE     ---       #778
      0100045AH   LINE      CODE     ---       #779
      0100045EH   LINE      CODE     ---       #780
      ---         BLOCKEND  ---      ---       LVL=0

      0100134BH   BLOCK     CODE     ---       LVL=0
      0100134BH   LINE      CODE     ---       #783
      0100134BH   LINE      CODE     ---       #784
      0100134BH   LINE      CODE     ---       #785
      0100134EH   LINE      CODE     ---       #790
      01001351H   LINE      CODE     ---       #791
      01001354H   LINE      CODE     ---       #792
      01001357H   LINE      CODE     ---       #793
      0100135AH   LINE      CODE     ---       #794
      0100135DH   LINE      CODE     ---       #795
      01001360H   LINE      CODE     ---       #796
      01001363H   LINE      CODE     ---       #797
      01001366H   LINE      CODE     ---       #798
      0100136DH   LINE      CODE     ---       #800
      0100136DH   LINE      CODE     ---       #801
      0100136DH   LINE      CODE     ---       #808
      01001370H   LINE      CODE     ---       #809
      01001377H   LINE      CODE     ---       #829
      ---         BLOCKEND  ---      ---       LVL=0

      ---         MODULE    ---      ---       INITDEVICE
      0100137FH   PUBLIC    CODE     ---       _uart_send
      01001551H   PUBLIC    CODE     ---       INTERRUPT_0_enter_DefaultMode_from_RESET
      01001560H   PUBLIC    CODE     ---       UART_0_enter_DefaultMode_from_RESET
      010014B0H   PUBLIC    CODE     ---       ADC_0_enter_DefaultMode_from_RESET
      0100151BH   PUBLIC    CODE     ---       TIMER_SETUP_0_enter_DefaultMode_from_RESET
      0100146AH   PUBLIC    CODE     ---       TIMER16_2_enter_DefaultMode_from_RESET
      010014F3H   PUBLIC    CODE     ---       TIMER01_0_enter_DefaultMode_from_RESET
      01000029H   PUBLIC    CODE     ---       FLASH_0_enter_DefaultMode_from_RESET
      01001541H   PUBLIC    CODE     ---       CLOCK_0_enter_DefaultMode_from_RESET
      01001538H   PUBLIC    CODE     ---       HFOSC_0_enter_DefaultMode_from_RESET
      0100155CH   PUBLIC    CODE     ---       RSTSRC_0_enter_DefaultMode_from_RESET
      0100154AH   PUBLIC    CODE     ---       PBCFG_0_enter_DefaultMode_from_RESET
      0100150EH   PUBLIC    CODE     ---       PORTS_1_enter_DefaultMode_from_RESET
      01001501H   PUBLIC    CODE     ---       PORTS_0_enter_DefaultMode_from_RESET
      01001558H   PUBLIC    CODE     ---       VREG_0_enter_DefaultMode_from_RESET
      0100152FH   PUBLIC    CODE     ---       PCA_0_enter_DefaultMode_from_RESET
      010012E8H   PUBLIC    CODE     ---       enter_DefaultMode_from_RESET
      000000A2H   SFRSYM    DATA     BYTE      SPI0CKR
      00000080H   SFRSYM    DATA     BYTE      P0
      000000D0H.2 SFRSYM    DATA     BIT       PSW_OV
      000000B1H   SFRSYM    DATA     BYTE      XOSC0CN
      00000090H   SFRSYM    DATA     BYTE      P1
      000000A0H   SFRSYM    DATA     BYTE      P2
LX51 LINKER/LOCATER V4.66.30.0                                                        11/13/2019  15:40:31  PAGE 27


      00000097H   SFRSYM    DATA     BYTE      ADC0CF
      000000C0H.7 SFRSYM    DATA     BIT       SMB0CN0_MASTER
      000000F9H   SFRSYM    DATA     WORD      PCA0
      000000AEH   SFRSYM    DATA     BYTE      RTC0KEY
      000000E6H   SFRSYM    DATA     BYTE      EIE1
      000000C0H.1 SFRSYM    DATA     BIT       SMB0CN0_ACK
      000000E7H   SFRSYM    DATA     BYTE      EIE2
      0000008FH   SFRSYM    DATA     BYTE      PSCTL
      000000E4H   SFRSYM    DATA     BYTE      IT01CF
      000000B0H   SFRSYM    DATA     BYTE      CS0CN0
      000000C0H.6 SFRSYM    DATA     BIT       SMB0CN0_TXMODE
      000000E3H   SFRSYM    DATA     BYTE      DERIVID
      000000AFH   SFRSYM    DATA     BYTE      CS0MD1
      000000A7H   SFRSYM    DATA     BYTE      SFRPAGE
      000000F3H   SFRSYM    DATA     BYTE      CS0MD2
      000000A4H   SFRSYM    DATA     BYTE      P0MDOUT
      000000F3H   SFRSYM    DATA     BYTE      CS0MD3
      000000A5H   SFRSYM    DATA     BYTE      P1MDOUT
      000000E8H.5 SFRSYM    DATA     BIT       ADC0CN0_ADINT
      000000CBH   SFRSYM    DATA     BYTE      TMR2RLH
      000000A6H   SFRSYM    DATA     BYTE      P2MDOUT
      000000A8H   SFRSYM    DATA     BYTE      IE
      00000093H   SFRSYM    DATA     BYTE      TMR3RLH
      000000F6H   SFRSYM    DATA     BYTE      EIP1
      000000F7H   SFRSYM    DATA     BYTE      EIP2
      00000098H.2 SFRSYM    DATA     BIT       SCON0_RB8
      000000CAH   SFRSYM    DATA     BYTE      TMR2RLL
      000000FCH   SFRSYM    DATA     BYTE      PCA0CPH0
      00000092H   SFRSYM    DATA     BYTE      TMR3RLL
      000000EAH   SFRSYM    DATA     BYTE      PCA0CPH1
      00000098H.3 SFRSYM    DATA     BIT       SCON0_TB8
      000000B0H.7 SFRSYM    DATA     BIT       CS0CN0_CSEN
      000000F0H   SFRSYM    DATA     BIT       B_B0
      00000082H   SFRSYM    DATA     WORD      DP
      000000ECH   SFRSYM    DATA     BYTE      PCA0CPH2
      000000F0H.1 SFRSYM    DATA     BIT       B_B1
      000000C3H   SFRSYM    DATA     WORD      ADC0GT
      000000F0H.2 SFRSYM    DATA     BIT       B_B2
      000000FBH   SFRSYM    DATA     BYTE      PCA0CPL0
      000000F0H.3 SFRSYM    DATA     BIT       B_B3
      000000D9H   SFRSYM    DATA     BYTE      PCA0MD
      000000DAH   SFRSYM    DATA     BYTE      PCA0CPM0
      000000E9H   SFRSYM    DATA     BYTE      PCA0CPL1
      000000F0H.4 SFRSYM    DATA     BIT       B_B4
      000000DBH   SFRSYM    DATA     BYTE      PCA0CPM1
      000000EBH   SFRSYM    DATA     BYTE      PCA0CPL2
      000000F0H.5 SFRSYM    DATA     BIT       B_B5
      000000DCH   SFRSYM    DATA     BYTE      PCA0CPM2
      000000B8H   SFRSYM    DATA     BYTE      IP
      000000BCH   SFRSYM    DATA     BYTE      ADC0TK
      000000F0H.6 SFRSYM    DATA     BIT       B_B6
      000000C5H   SFRSYM    DATA     WORD      ADC0LT
      000000D6H   SFRSYM    DATA     BYTE      IREF0CN0
      00000098H.5 SFRSYM    DATA     BIT       SCON0_MCE
      000000F0H.7 SFRSYM    DATA     BIT       B_B7
      000000E1H   SFRSYM    DATA     BYTE      XBR0
      000000C1H   SFRSYM    DATA     BYTE      SMB0CF
      000000E2H   SFRSYM    DATA     BYTE      XBR1
      000000D2H   SFRSYM    DATA     BYTE      CS0SCAN0
      000000C0H.5 SFRSYM    DATA     BIT       SMB0CN0_STA
      000000E3H   SFRSYM    DATA     BYTE      XBR2
      000000D3H   SFRSYM    DATA     BYTE      CS0SCAN1
LX51 LINKER/LOCATER V4.66.30.0                                                        11/13/2019  15:40:31  PAGE 28


      00000096H   SFRSYM    DATA     BYTE      ADC0MX
      000000E0H   SFRSYM    DATA     BIT       ACC_ACC0
      000000D1H   SFRSYM    DATA     BYTE      REF0CN
      000000B2H   SFRSYM    DATA     BYTE      HFO0CN
      0000008EH   SFRSYM    DATA     BYTE      CKCON0
      000000E0H.1 SFRSYM    DATA     BIT       ACC_ACC1
      000000C9H   SFRSYM    DATA     BYTE      REG0CN
      00000085H   SFRSYM    DATA     BYTE      CRC0IN
      000000C8H.2 SFRSYM    DATA     BIT       TMR2CN0_TR2
      000000E0H.2 SFRSYM    DATA     BIT       ACC_ACC2
      000000E0H.3 SFRSYM    DATA     BIT       ACC_ACC3
      00000081H   SFRSYM    DATA     BYTE      SP
      0000009DH   SFRSYM    DATA     BYTE      CMP0MD
      000000E0H.4 SFRSYM    DATA     BIT       ACC_ACC4
      000000D8H   SFRSYM    DATA     BIT       PCA0CN0_CCF0
      000000E0H.5 SFRSYM    DATA     BIT       ACC_ACC5
      000000D8H.1 SFRSYM    DATA     BIT       PCA0CN0_CCF1
      000000E0H.6 SFRSYM    DATA     BIT       ACC_ACC6
      000000CCH   SFRSYM    DATA     WORD      TMR2
      000000D8H.2 SFRSYM    DATA     BIT       PCA0CN0_CCF2
      000000E0H.7 SFRSYM    DATA     BIT       ACC_ACC7
      00000094H   SFRSYM    DATA     WORD      TMR3
      000000B0H   SFRSYM    DATA     BIT       CS0CN0_CSCMPF
      000000C0H.3 SFRSYM    DATA     BIT       SMB0CN0_ACKRQ
      000000FFH   SFRSYM    DATA     BYTE      VDM0CN
      000000F1H   SFRSYM    DATA     BYTE      P0MDIN
      00000098H.4 SFRSYM    DATA     BIT       SCON0_REN
      000000F2H   SFRSYM    DATA     BYTE      P1MDIN
      000000FEH   SFRSYM    DATA     BYTE      CS0THH
      000000C0H.4 SFRSYM    DATA     BIT       SMB0CN0_STO
      000000B5H   SFRSYM    DATA     BYTE      PMU0CF
      000000C7H   SFRSYM    DATA     BYTE      P0MASK
      000000BFH   SFRSYM    DATA     BYTE      P1MASK
      000000FDH   SFRSYM    DATA     BYTE      CS0THL
      000000D0H.3 SFRSYM    DATA     BIT       PSW_RS0
      000000D8H.7 SFRSYM    DATA     BIT       PCA0CN0_CF
      000000F8H.4 SFRSYM    DATA     BIT       SPI0CN0_RXOVRN
      000000D0H.4 SFRSYM    DATA     BIT       PSW_RS1
      000000C8H   SFRSYM    DATA     BIT       TMR2CN0_T2XCLK0
      000000C8H.1 SFRSYM    DATA     BIT       TMR2CN0_T2XCLK1
      000000E8H.7 SFRSYM    DATA     BIT       ADC0CN0_ADEN
      00000089H   SFRSYM    DATA     BYTE      TMOD
      00000088H   SFRSYM    DATA     BYTE      TCON
      000000B5H   SFRSYM    DATA     BYTE      PMU0MD
      000000CEH   SFRSYM    DATA     BYTE      PMU0FL
      0000009CH   SFRSYM    DATA     BYTE      CRC0FLIP
      000000D0H   SFRSYM    DATA     BIT       PSW_PARITY
      000000A8H.4 SFRSYM    DATA     BIT       IE_ES0
      0000009FH   SFRSYM    DATA     BYTE      CMP0MX
      000000A8H.1 SFRSYM    DATA     BIT       IE_ET0
      000000A8H.3 SFRSYM    DATA     BIT       IE_ET1
      000000D4H   SFRSYM    DATA     BYTE      P0SKIP
      000000A8H.5 SFRSYM    DATA     BIT       IE_ET2
      000000D5H   SFRSYM    DATA     BYTE      P1SKIP
      000000E8H   SFRSYM    DATA     BYTE      ADC0CN0
      000000A8H   SFRSYM    DATA     BIT       IE_EX0
      000000D8H.6 SFRSYM    DATA     BIT       PCA0CN0_CR
      000000A8H.2 SFRSYM    DATA     BIT       IE_EX1
      00000098H.7 SFRSYM    DATA     BIT       SCON0_SMODE
      000000A9H   SFRSYM    DATA     BYTE      CLKSEL
      000000F8H   SFRSYM    DATA     BIT       SPI0CN0_SPIEN
      000000F0H   SFRSYM    DATA     BYTE      B
LX51 LINKER/LOCATER V4.66.30.0                                                        11/13/2019  15:40:31  PAGE 29


      000000BEH   SFRSYM    DATA     BYTE      ADC0H
      0000009EH   SFRSYM    DATA     BYTE      CRC0AUTO
      000000B0H.4 SFRSYM    DATA     BIT       CS0CN0_CSBUSY
      000000E8H.6 SFRSYM    DATA     BIT       ADC0CN0_ADBMEN
      000000CAH   SFRSYM    DATA     WORD      TMR2RL
      000000BDH   SFRSYM    DATA     BYTE      ADC0L
      00000092H   SFRSYM    DATA     WORD      TMR3RL
      000000D8H   SFRSYM    DATA     BYTE      PCA0CN0
      000000E0H   SFRSYM    DATA     BYTE      ACC
      000000FBH   SFRSYM    DATA     WORD      PCA0CP0
      000000E9H   SFRSYM    DATA     WORD      PCA0CP1
      000000EBH   SFRSYM    DATA     WORD      PCA0CP2
      00000084H   SFRSYM    DATA     BYTE      CRC0CN0
      0000008CH   SFRSYM    DATA     BYTE      TH0
      000000B8H.4 SFRSYM    DATA     BIT       IP_PS0
      0000008DH   SFRSYM    DATA     BYTE      TH1
      000000FAH   SFRSYM    DATA     BYTE      PCA0H
      000000B8H.1 SFRSYM    DATA     BIT       IP_PT0
      000000B8H.3 SFRSYM    DATA     BIT       IP_PT1
      000000C0H.2 SFRSYM    DATA     BIT       SMB0CN0_ARBLOST
      000000B8H.5 SFRSYM    DATA     BIT       IP_PT2
      0000008AH   SFRSYM    DATA     BYTE      TL0
      000000AAH   SFRSYM    DATA     BYTE      CS0CF
      000000F8H.1 SFRSYM    DATA     BIT       SPI0CN0_TXBMT
      000000D0H.5 SFRSYM    DATA     BIT       PSW_F0
      000000A8H.6 SFRSYM    DATA     BIT       IE_ESPI0
      0000008BH   SFRSYM    DATA     BYTE      TL1
      000000F9H   SFRSYM    DATA     BYTE      PCA0L
      000000C0H   SFRSYM    DATA     BIT       SMB0CN0_SI
      000000D0H.1 SFRSYM    DATA     BIT       PSW_F1
      00000080H   SFRSYM    DATA     BIT       P0_B0
      000000B8H   SFRSYM    DATA     BIT       IP_PX0
      00000090H   SFRSYM    DATA     BIT       P1_B0
      00000080H.1 SFRSYM    DATA     BIT       P0_B1
      000000B8H.2 SFRSYM    DATA     BIT       IP_PX1
      000000EEH   SFRSYM    DATA     BYTE      CS0DH
      0000009BH   SFRSYM    DATA     BYTE      CMP0CN0
      00000088H.1 SFRSYM    DATA     BIT       TCON_IE0
      00000090H.1 SFRSYM    DATA     BIT       P1_B1
      00000080H.2 SFRSYM    DATA     BIT       P0_B2
      00000088H.3 SFRSYM    DATA     BIT       TCON_IE1
      00000090H.2 SFRSYM    DATA     BIT       P1_B2
      00000080H.3 SFRSYM    DATA     BIT       P0_B3
      000000C0H   SFRSYM    DATA     BYTE      SMB0CN0
      00000090H.3 SFRSYM    DATA     BIT       P1_B3
      00000080H.4 SFRSYM    DATA     BIT       P0_B4
      00000090H.4 SFRSYM    DATA     BIT       P1_B4
      00000080H.5 SFRSYM    DATA     BIT       P0_B5
      000000EDH   SFRSYM    DATA     BYTE      CS0DL
      00000090H.5 SFRSYM    DATA     BIT       P1_B5
      00000080H.6 SFRSYM    DATA     BIT       P0_B6
      00000090H.6 SFRSYM    DATA     BIT       P1_B6
      00000080H.7 SFRSYM    DATA     BIT       P0_B7
      00000090H.7 SFRSYM    DATA     BIT       P1_B7
      000000A0H.7 SFRSYM    DATA     BIT       P2_B7
      00000083H   SFRSYM    DATA     BYTE      DPH
      000000C4H   SFRSYM    DATA     BYTE      ADC0GTH
      000000C8H.7 SFRSYM    DATA     BIT       TMR2CN0_TF2H
      000000C8H.3 SFRSYM    DATA     BIT       TMR2CN0_T2SPLIT
      000000D0H.6 SFRSYM    DATA     BIT       PSW_AC
      000000F8H   SFRSYM    DATA     BYTE      SPI0CN0
      000000B3H   SFRSYM    DATA     BYTE      HFO0CAL
LX51 LINKER/LOCATER V4.66.30.0                                                        11/13/2019  15:40:31  PAGE 30


      000000DEH   SFRSYM    DATA     BYTE      CS0SE
      00000088H.5 SFRSYM    DATA     BIT       TCON_TF0
      00000098H   SFRSYM    DATA     BIT       SCON0_RI
      00000082H   SFRSYM    DATA     BYTE      DPL
      00000088H.7 SFRSYM    DATA     BIT       TCON_TF1
      00000099H   SFRSYM    DATA     BYTE      SBUF0
      00000087H   SFRSYM    DATA     BYTE      PCON0
      000000B9H   SFRSYM    DATA     BYTE      IREF0CF
      000000C3H   SFRSYM    DATA     BYTE      ADC0GTL
      000000C8H.6 SFRSYM    DATA     BIT       TMR2CN0_TF2L
      00000098H.1 SFRSYM    DATA     BIT       SCON0_TI
      000000E8H   SFRSYM    DATA     BIT       ADC0CN0_ADCM0
      000000C6H   SFRSYM    DATA     BYTE      ADC0LTH
      00000088H   SFRSYM    DATA     BIT       TCON_IT0
      000000B0H.1 SFRSYM    DATA     BIT       CS0CN0_CSPME
      000000E8H.1 SFRSYM    DATA     BIT       ADC0CN0_ADCM1
      000000EFH   SFRSYM    DATA     BYTE      RSTSRC
      000000D7H   SFRSYM    DATA     BYTE      P0MAT
      00000086H   SFRSYM    DATA     BYTE      CRC0DAT
      00000088H.2 SFRSYM    DATA     BIT       TCON_IT1
      000000E8H.2 SFRSYM    DATA     BIT       ADC0CN0_ADCM2
      00000098H   SFRSYM    DATA     BYTE      SCON0
      000000CFH   SFRSYM    DATA     BYTE      P1MAT
      000000DEH   SFRSYM    DATA     BYTE      CS0PM
      000000E8H.3 SFRSYM    DATA     BIT       ADC0CN0_ADWINT
      000000E8H.4 SFRSYM    DATA     BIT       ADC0CN0_ADBUSY
      000000F5H   SFRSYM    DATA     BYTE      SMB0ADM
      000000C5H   SFRSYM    DATA     BYTE      ADC0LTL
      000000F8H.5 SFRSYM    DATA     BIT       SPI0CN0_MODF
      000000B8H.6 SFRSYM    DATA     BIT       IP_PSPI0
      000000B0H.6 SFRSYM    DATA     BIT       CS0CN0_CSEOS
      000000C8H   SFRSYM    DATA     BYTE      TMR2CN0
      00000091H   SFRSYM    DATA     BYTE      TMR3CN0
      000000F4H   SFRSYM    DATA     BYTE      SMB0ADR
      00000088H.4 SFRSYM    DATA     BIT       TCON_TR0
      000000B0H.5 SFRSYM    DATA     BIT       CS0CN0_CSINT
      000000ABH   SFRSYM    DATA     BYTE      CS0MX
      000000C8H.4 SFRSYM    DATA     BIT       TMR2CN0_TF2CEN
      00000088H.6 SFRSYM    DATA     BIT       TCON_TR1
      000000C2H   SFRSYM    DATA     BYTE      SMB0DAT
      00000099H   SFRSYM    DATA     BYTE      P0DRV
      000000DDH   SFRSYM    DATA     BYTE      CS0SS
      000000CDH   SFRSYM    DATA     BYTE      TMR2H
      000000A1H   SFRSYM    DATA     BYTE      SPI0CFG
      0000009BH   SFRSYM    DATA     BYTE      P1DRV
      00000095H   SFRSYM    DATA     BYTE      TMR3H
      0000009DH   SFRSYM    DATA     BYTE      P2DRV
      0000009AH   SFRSYM    DATA     BYTE      CRC0CNT
      000000CCH   SFRSYM    DATA     BYTE      TMR2L
      000000ACH   SFRSYM    DATA     BYTE      RTC0ADR
      000000F8H.7 SFRSYM    DATA     BIT       SPI0CN0_SPIF
      00000094H   SFRSYM    DATA     BYTE      TMR3L
      000000BBH   SFRSYM    DATA     BYTE      ADC0PWR
      000000A8H.7 SFRSYM    DATA     BIT       IE_EA
      000000ADH   SFRSYM    DATA     BYTE      RTC0DAT
      000000B0H.3 SFRSYM    DATA     BIT       CS0CN0_CSCMPEN
      000000B6H   SFRSYM    DATA     BYTE      FLSCL
      000000C8H.5 SFRSYM    DATA     BIT       TMR2CN0_TF2LEN
      000000F8H.6 SFRSYM    DATA     BIT       SPI0CN0_WCOL
      000000F8H.2 SFRSYM    DATA     BIT       SPI0CN0_NSSMD0
      000000D0H.7 SFRSYM    DATA     BIT       PSW_CY
      000000A3H   SFRSYM    DATA     BYTE      SPI0DAT
LX51 LINKER/LOCATER V4.66.30.0                                                        11/13/2019  15:40:31  PAGE 31


      000000F8H.3 SFRSYM    DATA     BIT       SPI0CN0_NSSMD1
      000000BDH   SFRSYM    DATA     WORD      ADC0
      0000008EH   SFRSYM    DATA     BYTE      TOFFH
      000000D0H   SFRSYM    DATA     BYTE      PSW
      000000DFH   SFRSYM    DATA     BYTE      PCA0PWM
      000000E2H   SFRSYM    DATA     BYTE      REVID
      0000008DH   SFRSYM    DATA     BYTE      TOFFL
      000000B7H   SFRSYM    DATA     BYTE      FLKEY
      000000BAH   SFRSYM    DATA     BYTE      ADC0AC

      010012E8H   BLOCK     CODE     ---       LVL=0
      010012E8H   BLOCK     CODE     NEAR LAB  LVL=1
      0000000CH   SYMBOL    DATA     BYTE      SFRPAGE_save
      ---         BLOCKEND  ---      ---       LVL=1
      010012E8H   LINE      CODE     ---       #28
      010012E8H   LINE      CODE     ---       #31
      010012EBH   LINE      CODE     ---       #32
      010012EEH   LINE      CODE     ---       #33
      010012F1H   LINE      CODE     ---       #34
      010012F4H   LINE      CODE     ---       #35
      010012F7H   LINE      CODE     ---       #36
      010012FAH   LINE      CODE     ---       #37
      010012FDH   LINE      CODE     ---       #38
      01001300H   LINE      CODE     ---       #39
      01001303H   LINE      CODE     ---       #40
      01001306H   LINE      CODE     ---       #41
      01001309H   LINE      CODE     ---       #42
      0100130CH   LINE      CODE     ---       #43
      0100130FH   LINE      CODE     ---       #44
      01001312H   LINE      CODE     ---       #45
      01001315H   LINE      CODE     ---       #47
      01001318H   LINE      CODE     ---       #49
      0100131BH   LINE      CODE     ---       #53
      ---         BLOCKEND  ---      ---       LVL=0

      0100152FH   BLOCK     CODE     ---       LVL=0
      0100152FH   LINE      CODE     ---       #59
      0100152FH   LINE      CODE     ---       #73
      01001532H   LINE      CODE     ---       #74
      01001535H   LINE      CODE     ---       #75
      01001537H   LINE      CODE     ---       #92
      ---         BLOCKEND  ---      ---       LVL=0

      01001558H   BLOCK     CODE     ---       LVL=0
      01001558H   LINE      CODE     ---       #97
      01001558H   LINE      CODE     ---       #103
      0100155BH   LINE      CODE     ---       #107
      ---         BLOCKEND  ---      ---       LVL=0

      01001501H   BLOCK     CODE     ---       LVL=0
      01001501H   LINE      CODE     ---       #113
      01001501H   LINE      CODE     ---       #156
      01001504H   LINE      CODE     ---       #159
      01001507H   LINE      CODE     ---       #162
      0100150AH   LINE      CODE     ---       #165
      0100150DH   LINE      CODE     ---       #169
      ---         BLOCKEND  ---      ---       LVL=0

      0100150EH   BLOCK     CODE     ---       LVL=0
      0100150EH   LINE      CODE     ---       #174
      0100150EH   LINE      CODE     ---       #196
      01001511H   LINE      CODE     ---       #220
LX51 LINKER/LOCATER V4.66.30.0                                                        11/13/2019  15:40:31  PAGE 32


      01001514H   LINE      CODE     ---       #247
      01001517H   LINE      CODE     ---       #250
      0100151AH   LINE      CODE     ---       #262
      ---         BLOCKEND  ---      ---       LVL=0

      0100154AH   BLOCK     CODE     ---       LVL=0
      0100154AH   LINE      CODE     ---       #267
      0100154AH   LINE      CODE     ---       #275
      0100154DH   LINE      CODE     ---       #292
      01001550H   LINE      CODE     ---       #300
      ---         BLOCKEND  ---      ---       LVL=0

      0100155CH   BLOCK     CODE     ---       LVL=0
      0100155CH   LINE      CODE     ---       #306
      0100155CH   LINE      CODE     ---       #320
      0100155FH   LINE      CODE     ---       #325
      ---         BLOCKEND  ---      ---       LVL=0

      01001538H   BLOCK     CODE     ---       LVL=0
      01001538H   LINE      CODE     ---       #330
      01001538H   LINE      CODE     ---       #339
      0100153BH   LINE      CODE     ---       #343
      01001540H   LINE      CODE     ---       #347
      ---         BLOCKEND  ---      ---       LVL=0

      01001541H   BLOCK     CODE     ---       LVL=0
      01001541H   LINE      CODE     ---       #352
      01001541H   LINE      CODE     ---       #360
      01001544H   LINE      CODE     ---       #362
      01001549H   LINE      CODE     ---       #366
      ---         BLOCKEND  ---      ---       LVL=0

      01000029H   BLOCK     CODE     ---       LVL=0
      01000029H   LINE      CODE     ---       #371
      01000029H   LINE      CODE     ---       #382
      ---         BLOCKEND  ---      ---       LVL=0

      010014F3H   BLOCK     CODE     ---       LVL=0
      010014F3H   BLOCK     CODE     NEAR LAB  LVL=1
      00000007H   SYMBOL    DATA     BYTE      TCON_save
      ---         BLOCKEND  ---      ---       LVL=1
      010014F3H   LINE      CODE     ---       #388
      010014F3H   LINE      CODE     ---       #391
      010014F5H   LINE      CODE     ---       #393
      010014F8H   LINE      CODE     ---       #409
      010014FBH   LINE      CODE     ---       #410
      010014FEH   LINE      CODE     ---       #411
      01001500H   LINE      CODE     ---       #420
      ---         BLOCKEND  ---      ---       LVL=0

      0100146AH   BLOCK     CODE     ---       LVL=0
      0100146AH   BLOCK     CODE     NEAR LAB  LVL=1
      00000007H   SYMBOL    DATA     BYTE      TMR2CN0_TR2_save
      ---         BLOCKEND  ---      ---       LVL=1
      0100146AH   LINE      CODE     ---       #425
      0100146AH   LINE      CODE     ---       #428
      0100146EH   LINE      CODE     ---       #430
      01001471H   LINE      CODE     ---       #440
      01001474H   LINE      CODE     ---       #447
      01001477H   LINE      CODE     ---       #454
      0100147AH   LINE      CODE     ---       #461
      0100147DH   LINE      CODE     ---       #468
LX51 LINKER/LOCATER V4.66.30.0                                                        11/13/2019  15:40:31  PAGE 33


      01001480H   LINE      CODE     ---       #473
      01001482H   LINE      CODE     ---       #477
      ---         BLOCKEND  ---      ---       LVL=0

      0100151BH   BLOCK     CODE     ---       LVL=0
      0100151BH   LINE      CODE     ---       #481
      0100151BH   LINE      CODE     ---       #497
      0100151EH   LINE      CODE     ---       #516
      01001521H   LINE      CODE     ---       #524
      01001524H   LINE      CODE     ---       #528
      ---         BLOCKEND  ---      ---       LVL=0

      010014B0H   BLOCK     CODE     ---       LVL=0
      010014B0H   LINE      CODE     ---       #533
      010014B0H   LINE      CODE     ---       #539
      010014B3H   LINE      CODE     ---       #552
      010014B6H   LINE      CODE     ---       #572
      010014B9H   LINE      CODE     ---       #580
      010014BCH   LINE      CODE     ---       #587
      010014BEH   LINE      CODE     ---       #602
      010014C1H   LINE      CODE     ---       #603
      010014C4H   LINE      CODE     ---       #608
      ---         BLOCKEND  ---      ---       LVL=0

      01001560H   BLOCK     CODE     ---       LVL=0
      01001560H   LINE      CODE     ---       #635
      01001560H   LINE      CODE     ---       #643
      01001563H   LINE      CODE     ---       #679
      ---         BLOCKEND  ---      ---       LVL=0

      01001551H   BLOCK     CODE     ---       LVL=0
      01001551H   LINE      CODE     ---       #698
      01001551H   LINE      CODE     ---       #716
      01001554H   LINE      CODE     ---       #741
      01001557H   LINE      CODE     ---       #756
      ---         BLOCKEND  ---      ---       LVL=0

      01001379H   BLOCK     CODE     ---       LVL=0
      ---         BLOCKEND  ---      ---       LVL=0

      0100137FH   BLOCK     CODE     ---       LVL=0
      00000001H   SYMBOL    DATA     ---       buf
      00000004H   SYMBOL    DATA     INT       count
      00000070H   SYMBOL    DATA     ---       ptr
      0100137FH   BLOCK     CODE     NEAR LAB  LVL=1
      00000070H   SYMBOL    DATA     ---       ptr
      ---         BLOCKEND  ---      ---       LVL=1
      0100137FH   LINE      CODE     ---       #769
      0100137FH   LINE      CODE     ---       #770
      0100137FH   LINE      CODE     ---       #772
      01001385H   LINE      CODE     ---       #773
      01001385H   LINE      CODE     ---       #774
      01001398H   LINE      CODE     ---       #776
      0100139BH   LINE      CODE     ---       #777
      0100139DH   LINE      CODE     ---       #778
      010013A6H   LINE      CODE     ---       #780
      ---         BLOCKEND  ---      ---       LVL=0
      00000001H   SYMBOL    DATA     ---       buf
      00000004H   SYMBOL    DATA     INT       count_uart
      00000001H   SYMBOL    DATA     ---       buf
      00000006H   SYMBOL    DATA     INT       count_uart

LX51 LINKER/LOCATER V4.66.30.0                                                        11/13/2019  15:40:31  PAGE 34


      ---         MODULE    ---      ---       INTERRUPTS
      0000007CH   PUBLIC    DATA     INT       count_timer
      0000007AH   PUBLIC    DATA     WORD      count
      01001483H   PUBLIC    CODE     ---       TIMER2_ISR
      0100131CH   PUBLIC    CODE     ---       ADC0EOC_ISR
      01001525H   PUBLIC    CODE     ---       stop_timer2
      010011ABH   PUBLIC    CODE     ---       _set_timer2
      01001033H   PUBLIC    CODE     ---       _timer_sleepus_select
      000000A2H   SFRSYM    DATA     BYTE      SPI0CKR
      00000080H   SFRSYM    DATA     BYTE      P0
      000000D0H.2 SFRSYM    DATA     BIT       PSW_OV
      000000B1H   SFRSYM    DATA     BYTE      XOSC0CN
      00000090H   SFRSYM    DATA     BYTE      P1
      000000A0H   SFRSYM    DATA     BYTE      P2
      00000097H   SFRSYM    DATA     BYTE      ADC0CF
      000000C0H.7 SFRSYM    DATA     BIT       SMB0CN0_MASTER
      000000F9H   SFRSYM    DATA     WORD      PCA0
      000000AEH   SFRSYM    DATA     BYTE      RTC0KEY
      000000E6H   SFRSYM    DATA     BYTE      EIE1
      000000C0H.1 SFRSYM    DATA     BIT       SMB0CN0_ACK
      000000E7H   SFRSYM    DATA     BYTE      EIE2
      0000008FH   SFRSYM    DATA     BYTE      PSCTL
      000000E4H   SFRSYM    DATA     BYTE      IT01CF
      000000B0H   SFRSYM    DATA     BYTE      CS0CN0
      000000C0H.6 SFRSYM    DATA     BIT       SMB0CN0_TXMODE
      000000E3H   SFRSYM    DATA     BYTE      DERIVID
      000000AFH   SFRSYM    DATA     BYTE      CS0MD1
      000000A7H   SFRSYM    DATA     BYTE      SFRPAGE
      000000F3H   SFRSYM    DATA     BYTE      CS0MD2
      000000A4H   SFRSYM    DATA     BYTE      P0MDOUT
      000000F3H   SFRSYM    DATA     BYTE      CS0MD3
      000000A5H   SFRSYM    DATA     BYTE      P1MDOUT
      000000E8H.5 SFRSYM    DATA     BIT       ADC0CN0_ADINT
      000000CBH   SFRSYM    DATA     BYTE      TMR2RLH
      000000A6H   SFRSYM    DATA     BYTE      P2MDOUT
      000000A8H   SFRSYM    DATA     BYTE      IE
      00000093H   SFRSYM    DATA     BYTE      TMR3RLH
      000000F6H   SFRSYM    DATA     BYTE      EIP1
      000000F7H   SFRSYM    DATA     BYTE      EIP2
      00000098H.2 SFRSYM    DATA     BIT       SCON0_RB8
      000000CAH   SFRSYM    DATA     BYTE      TMR2RLL
      000000FCH   SFRSYM    DATA     BYTE      PCA0CPH0
      00000092H   SFRSYM    DATA     BYTE      TMR3RLL
      000000EAH   SFRSYM    DATA     BYTE      PCA0CPH1
      00000098H.3 SFRSYM    DATA     BIT       SCON0_TB8
      000000B0H.7 SFRSYM    DATA     BIT       CS0CN0_CSEN
      000000F0H   SFRSYM    DATA     BIT       B_B0
      00000082H   SFRSYM    DATA     WORD      DP
      000000ECH   SFRSYM    DATA     BYTE      PCA0CPH2
      000000F0H.1 SFRSYM    DATA     BIT       B_B1
      000000C3H   SFRSYM    DATA     WORD      ADC0GT
      000000F0H.2 SFRSYM    DATA     BIT       B_B2
      000000FBH   SFRSYM    DATA     BYTE      PCA0CPL0
      000000F0H.3 SFRSYM    DATA     BIT       B_B3
      000000D9H   SFRSYM    DATA     BYTE      PCA0MD
      000000DAH   SFRSYM    DATA     BYTE      PCA0CPM0
      000000E9H   SFRSYM    DATA     BYTE      PCA0CPL1
      000000F0H.4 SFRSYM    DATA     BIT       B_B4
      000000DBH   SFRSYM    DATA     BYTE      PCA0CPM1
      000000EBH   SFRSYM    DATA     BYTE      PCA0CPL2
      000000F0H.5 SFRSYM    DATA     BIT       B_B5
      000000DCH   SFRSYM    DATA     BYTE      PCA0CPM2
LX51 LINKER/LOCATER V4.66.30.0                                                        11/13/2019  15:40:31  PAGE 35


      000000B8H   SFRSYM    DATA     BYTE      IP
      000000BCH   SFRSYM    DATA     BYTE      ADC0TK
      000000F0H.6 SFRSYM    DATA     BIT       B_B6
      000000C5H   SFRSYM    DATA     WORD      ADC0LT
      000000D6H   SFRSYM    DATA     BYTE      IREF0CN0
      00000098H.5 SFRSYM    DATA     BIT       SCON0_MCE
      000000F0H.7 SFRSYM    DATA     BIT       B_B7
      000000E1H   SFRSYM    DATA     BYTE      XBR0
      000000C1H   SFRSYM    DATA     BYTE      SMB0CF
      000000E2H   SFRSYM    DATA     BYTE      XBR1
      000000D2H   SFRSYM    DATA     BYTE      CS0SCAN0
      000000C0H.5 SFRSYM    DATA     BIT       SMB0CN0_STA
      000000E3H   SFRSYM    DATA     BYTE      XBR2
      000000D3H   SFRSYM    DATA     BYTE      CS0SCAN1
      00000096H   SFRSYM    DATA     BYTE      ADC0MX
      000000E0H   SFRSYM    DATA     BIT       ACC_ACC0
      000000D1H   SFRSYM    DATA     BYTE      REF0CN
      000000B2H   SFRSYM    DATA     BYTE      HFO0CN
      0000008EH   SFRSYM    DATA     BYTE      CKCON0
      000000E0H.1 SFRSYM    DATA     BIT       ACC_ACC1
      000000C9H   SFRSYM    DATA     BYTE      REG0CN
      00000085H   SFRSYM    DATA     BYTE      CRC0IN
      000000C8H.2 SFRSYM    DATA     BIT       TMR2CN0_TR2
      000000E0H.2 SFRSYM    DATA     BIT       ACC_ACC2
      000000E0H.3 SFRSYM    DATA     BIT       ACC_ACC3
      00000081H   SFRSYM    DATA     BYTE      SP
      0000009DH   SFRSYM    DATA     BYTE      CMP0MD
      000000E0H.4 SFRSYM    DATA     BIT       ACC_ACC4
      000000D8H   SFRSYM    DATA     BIT       PCA0CN0_CCF0
      000000E0H.5 SFRSYM    DATA     BIT       ACC_ACC5
      000000D8H.1 SFRSYM    DATA     BIT       PCA0CN0_CCF1
      000000E0H.6 SFRSYM    DATA     BIT       ACC_ACC6
      000000CCH   SFRSYM    DATA     WORD      TMR2
      000000D8H.2 SFRSYM    DATA     BIT       PCA0CN0_CCF2
      000000E0H.7 SFRSYM    DATA     BIT       ACC_ACC7
      00000094H   SFRSYM    DATA     WORD      TMR3
      000000B0H   SFRSYM    DATA     BIT       CS0CN0_CSCMPF
      000000C0H.3 SFRSYM    DATA     BIT       SMB0CN0_ACKRQ
      000000FFH   SFRSYM    DATA     BYTE      VDM0CN
      000000F1H   SFRSYM    DATA     BYTE      P0MDIN
      00000098H.4 SFRSYM    DATA     BIT       SCON0_REN
      000000F2H   SFRSYM    DATA     BYTE      P1MDIN
      000000FEH   SFRSYM    DATA     BYTE      CS0THH
      000000C0H.4 SFRSYM    DATA     BIT       SMB0CN0_STO
      000000B5H   SFRSYM    DATA     BYTE      PMU0CF
      000000C7H   SFRSYM    DATA     BYTE      P0MASK
      000000BFH   SFRSYM    DATA     BYTE      P1MASK
      000000FDH   SFRSYM    DATA     BYTE      CS0THL
      000000D0H.3 SFRSYM    DATA     BIT       PSW_RS0
      000000D8H.7 SFRSYM    DATA     BIT       PCA0CN0_CF
      000000F8H.4 SFRSYM    DATA     BIT       SPI0CN0_RXOVRN
      000000D0H.4 SFRSYM    DATA     BIT       PSW_RS1
      000000C8H   SFRSYM    DATA     BIT       TMR2CN0_T2XCLK0
      000000C8H.1 SFRSYM    DATA     BIT       TMR2CN0_T2XCLK1
      000000E8H.7 SFRSYM    DATA     BIT       ADC0CN0_ADEN
      00000089H   SFRSYM    DATA     BYTE      TMOD
      00000088H   SFRSYM    DATA     BYTE      TCON
      000000B5H   SFRSYM    DATA     BYTE      PMU0MD
      000000CEH   SFRSYM    DATA     BYTE      PMU0FL
      0000009CH   SFRSYM    DATA     BYTE      CRC0FLIP
      000000D0H   SFRSYM    DATA     BIT       PSW_PARITY
      000000A8H.4 SFRSYM    DATA     BIT       IE_ES0
LX51 LINKER/LOCATER V4.66.30.0                                                        11/13/2019  15:40:31  PAGE 36


      0000009FH   SFRSYM    DATA     BYTE      CMP0MX
      000000A8H.1 SFRSYM    DATA     BIT       IE_ET0
      000000A8H.3 SFRSYM    DATA     BIT       IE_ET1
      000000D4H   SFRSYM    DATA     BYTE      P0SKIP
      000000A8H.5 SFRSYM    DATA     BIT       IE_ET2
      000000D5H   SFRSYM    DATA     BYTE      P1SKIP
      000000E8H   SFRSYM    DATA     BYTE      ADC0CN0
      000000A8H   SFRSYM    DATA     BIT       IE_EX0
      000000D8H.6 SFRSYM    DATA     BIT       PCA0CN0_CR
      000000A8H.2 SFRSYM    DATA     BIT       IE_EX1
      00000098H.7 SFRSYM    DATA     BIT       SCON0_SMODE
      000000A9H   SFRSYM    DATA     BYTE      CLKSEL
      000000F8H   SFRSYM    DATA     BIT       SPI0CN0_SPIEN
      000000F0H   SFRSYM    DATA     BYTE      B
      000000BEH   SFRSYM    DATA     BYTE      ADC0H
      0000009EH   SFRSYM    DATA     BYTE      CRC0AUTO
      000000B0H.4 SFRSYM    DATA     BIT       CS0CN0_CSBUSY
      000000E8H.6 SFRSYM    DATA     BIT       ADC0CN0_ADBMEN
      000000CAH   SFRSYM    DATA     WORD      TMR2RL
      000000BDH   SFRSYM    DATA     BYTE      ADC0L
      00000092H   SFRSYM    DATA     WORD      TMR3RL
      000000D8H   SFRSYM    DATA     BYTE      PCA0CN0
      000000E0H   SFRSYM    DATA     BYTE      ACC
      000000FBH   SFRSYM    DATA     WORD      PCA0CP0
      000000E9H   SFRSYM    DATA     WORD      PCA0CP1
      000000EBH   SFRSYM    DATA     WORD      PCA0CP2
      00000084H   SFRSYM    DATA     BYTE      CRC0CN0
      0000008CH   SFRSYM    DATA     BYTE      TH0
      000000B8H.4 SFRSYM    DATA     BIT       IP_PS0
      0000008DH   SFRSYM    DATA     BYTE      TH1
      000000FAH   SFRSYM    DATA     BYTE      PCA0H
      000000B8H.1 SFRSYM    DATA     BIT       IP_PT0
      000000B8H.3 SFRSYM    DATA     BIT       IP_PT1
      000000C0H.2 SFRSYM    DATA     BIT       SMB0CN0_ARBLOST
      000000B8H.5 SFRSYM    DATA     BIT       IP_PT2
      0000008AH   SFRSYM    DATA     BYTE      TL0
      000000AAH   SFRSYM    DATA     BYTE      CS0CF
      000000F8H.1 SFRSYM    DATA     BIT       SPI0CN0_TXBMT
      000000D0H.5 SFRSYM    DATA     BIT       PSW_F0
      000000A8H.6 SFRSYM    DATA     BIT       IE_ESPI0
      0000008BH   SFRSYM    DATA     BYTE      TL1
      000000F9H   SFRSYM    DATA     BYTE      PCA0L
      000000C0H   SFRSYM    DATA     BIT       SMB0CN0_SI
      000000D0H.1 SFRSYM    DATA     BIT       PSW_F1
      00000080H   SFRSYM    DATA     BIT       P0_B0
      000000B8H   SFRSYM    DATA     BIT       IP_PX0
      00000090H   SFRSYM    DATA     BIT       P1_B0
      00000080H.1 SFRSYM    DATA     BIT       P0_B1
      000000B8H.2 SFRSYM    DATA     BIT       IP_PX1
      000000EEH   SFRSYM    DATA     BYTE      CS0DH
      0000009BH   SFRSYM    DATA     BYTE      CMP0CN0
      00000088H.1 SFRSYM    DATA     BIT       TCON_IE0
      00000090H.1 SFRSYM    DATA     BIT       P1_B1
      00000080H.2 SFRSYM    DATA     BIT       P0_B2
      00000088H.3 SFRSYM    DATA     BIT       TCON_IE1
      00000090H.2 SFRSYM    DATA     BIT       P1_B2
      00000080H.3 SFRSYM    DATA     BIT       P0_B3
      000000C0H   SFRSYM    DATA     BYTE      SMB0CN0
      00000090H.3 SFRSYM    DATA     BIT       P1_B3
      00000080H.4 SFRSYM    DATA     BIT       P0_B4
      00000090H.4 SFRSYM    DATA     BIT       P1_B4
      00000080H.5 SFRSYM    DATA     BIT       P0_B5
LX51 LINKER/LOCATER V4.66.30.0                                                        11/13/2019  15:40:31  PAGE 37


      000000EDH   SFRSYM    DATA     BYTE      CS0DL
      00000090H.5 SFRSYM    DATA     BIT       P1_B5
      00000080H.6 SFRSYM    DATA     BIT       P0_B6
      00000090H.6 SFRSYM    DATA     BIT       P1_B6
      00000080H.7 SFRSYM    DATA     BIT       P0_B7
      00000090H.7 SFRSYM    DATA     BIT       P1_B7
      000000A0H.7 SFRSYM    DATA     BIT       P2_B7
      00000083H   SFRSYM    DATA     BYTE      DPH
      000000C4H   SFRSYM    DATA     BYTE      ADC0GTH
      000000C8H.7 SFRSYM    DATA     BIT       TMR2CN0_TF2H
      000000C8H.3 SFRSYM    DATA     BIT       TMR2CN0_T2SPLIT
      000000D0H.6 SFRSYM    DATA     BIT       PSW_AC
      000000F8H   SFRSYM    DATA     BYTE      SPI0CN0
      000000B3H   SFRSYM    DATA     BYTE      HFO0CAL
      000000DEH   SFRSYM    DATA     BYTE      CS0SE
      00000088H.5 SFRSYM    DATA     BIT       TCON_TF0
      00000098H   SFRSYM    DATA     BIT       SCON0_RI
      00000082H   SFRSYM    DATA     BYTE      DPL
      00000088H.7 SFRSYM    DATA     BIT       TCON_TF1
      00000099H   SFRSYM    DATA     BYTE      SBUF0
      00000087H   SFRSYM    DATA     BYTE      PCON0
      000000B9H   SFRSYM    DATA     BYTE      IREF0CF
      000000C3H   SFRSYM    DATA     BYTE      ADC0GTL
      000000C8H.6 SFRSYM    DATA     BIT       TMR2CN0_TF2L
      00000098H.1 SFRSYM    DATA     BIT       SCON0_TI
      000000E8H   SFRSYM    DATA     BIT       ADC0CN0_ADCM0
      000000C6H   SFRSYM    DATA     BYTE      ADC0LTH
      00000088H   SFRSYM    DATA     BIT       TCON_IT0
      000000B0H.1 SFRSYM    DATA     BIT       CS0CN0_CSPME
      000000E8H.1 SFRSYM    DATA     BIT       ADC0CN0_ADCM1
      000000EFH   SFRSYM    DATA     BYTE      RSTSRC
      000000D7H   SFRSYM    DATA     BYTE      P0MAT
      00000086H   SFRSYM    DATA     BYTE      CRC0DAT
      00000088H.2 SFRSYM    DATA     BIT       TCON_IT1
      000000E8H.2 SFRSYM    DATA     BIT       ADC0CN0_ADCM2
      00000098H   SFRSYM    DATA     BYTE      SCON0
      000000CFH   SFRSYM    DATA     BYTE      P1MAT
      000000DEH   SFRSYM    DATA     BYTE      CS0PM
      000000E8H.3 SFRSYM    DATA     BIT       ADC0CN0_ADWINT
      000000E8H.4 SFRSYM    DATA     BIT       ADC0CN0_ADBUSY
      000000F5H   SFRSYM    DATA     BYTE      SMB0ADM
      000000C5H   SFRSYM    DATA     BYTE      ADC0LTL
      000000F8H.5 SFRSYM    DATA     BIT       SPI0CN0_MODF
      000000B8H.6 SFRSYM    DATA     BIT       IP_PSPI0
      000000B0H.6 SFRSYM    DATA     BIT       CS0CN0_CSEOS
      000000C8H   SFRSYM    DATA     BYTE      TMR2CN0
      00000091H   SFRSYM    DATA     BYTE      TMR3CN0
      000000F4H   SFRSYM    DATA     BYTE      SMB0ADR
      00000088H.4 SFRSYM    DATA     BIT       TCON_TR0
      000000B0H.5 SFRSYM    DATA     BIT       CS0CN0_CSINT
      000000ABH   SFRSYM    DATA     BYTE      CS0MX
      000000C8H.4 SFRSYM    DATA     BIT       TMR2CN0_TF2CEN
      00000088H.6 SFRSYM    DATA     BIT       TCON_TR1
      000000C2H   SFRSYM    DATA     BYTE      SMB0DAT
      00000099H   SFRSYM    DATA     BYTE      P0DRV
      000000DDH   SFRSYM    DATA     BYTE      CS0SS
      000000CDH   SFRSYM    DATA     BYTE      TMR2H
      000000A1H   SFRSYM    DATA     BYTE      SPI0CFG
      0000009BH   SFRSYM    DATA     BYTE      P1DRV
      00000095H   SFRSYM    DATA     BYTE      TMR3H
      0000009DH   SFRSYM    DATA     BYTE      P2DRV
      0000009AH   SFRSYM    DATA     BYTE      CRC0CNT
LX51 LINKER/LOCATER V4.66.30.0                                                        11/13/2019  15:40:31  PAGE 38


      000000CCH   SFRSYM    DATA     BYTE      TMR2L
      000000ACH   SFRSYM    DATA     BYTE      RTC0ADR
      000000F8H.7 SFRSYM    DATA     BIT       SPI0CN0_SPIF
      00000094H   SFRSYM    DATA     BYTE      TMR3L
      000000BBH   SFRSYM    DATA     BYTE      ADC0PWR
      000000A8H.7 SFRSYM    DATA     BIT       IE_EA
      000000ADH   SFRSYM    DATA     BYTE      RTC0DAT
      000000B0H.3 SFRSYM    DATA     BIT       CS0CN0_CSCMPEN
      000000B6H   SFRSYM    DATA     BYTE      FLSCL
      000000C8H.5 SFRSYM    DATA     BIT       TMR2CN0_TF2LEN
      000000F8H.6 SFRSYM    DATA     BIT       SPI0CN0_WCOL
      000000F8H.2 SFRSYM    DATA     BIT       SPI0CN0_NSSMD0
      000000D0H.7 SFRSYM    DATA     BIT       PSW_CY
      000000A3H   SFRSYM    DATA     BYTE      SPI0DAT
      000000F8H.3 SFRSYM    DATA     BIT       SPI0CN0_NSSMD1
      000000BDH   SFRSYM    DATA     WORD      ADC0
      0000008EH   SFRSYM    DATA     BYTE      TOFFH
      000000D0H   SFRSYM    DATA     BYTE      PSW
      000000DFH   SFRSYM    DATA     BYTE      PCA0PWM
      000000E2H   SFRSYM    DATA     BYTE      REVID
      0000008DH   SFRSYM    DATA     BYTE      TOFFL
      000000B7H   SFRSYM    DATA     BYTE      FLKEY
      000000BAH   SFRSYM    DATA     BYTE      ADC0AC

      01001033H   BLOCK     CODE     ---       LVL=0
      00000006H   SYMBOL    DATA     INT       para
      0000006BH   SYMBOL    DATA     INT       t
      01001037H   BLOCK     CODE     NEAR LAB  LVL=1
      0000006DH   SYMBOL    DATA     BYTE      TMR2CN0_TR2_save
      0000006EH   SYMBOL    DATA     BYTE      TMER2H_value
      0000006FH   SYMBOL    DATA     BYTE      TMER2L_value
      ---         BLOCKEND  ---      ---       LVL=1
      01001033H   LINE      CODE     ---       #41
      01001037H   LINE      CODE     ---       #42
      01001037H   LINE      CODE     ---       #43
      0100103DH   LINE      CODE     ---       #46
      01001072H   LINE      CODE     ---       #47
      01001072H   LINE      CODE     ---       #48
      01001075H   LINE      CODE     ---       #49
      01001078H   LINE      CODE     ---       #50
      0100107AH   LINE      CODE     ---       #51
      0100107AH   LINE      CODE     ---       #52
      0100107DH   LINE      CODE     ---       #53
      01001080H   LINE      CODE     ---       #54
      01001082H   LINE      CODE     ---       #55
      01001082H   LINE      CODE     ---       #56
      01001085H   LINE      CODE     ---       #57
      01001088H   LINE      CODE     ---       #58
      0100108AH   LINE      CODE     ---       #59
      0100108AH   LINE      CODE     ---       #60
      0100108DH   LINE      CODE     ---       #61
      01001090H   LINE      CODE     ---       #62
      01001092H   LINE      CODE     ---       #63
      01001092H   LINE      CODE     ---       #64
      01001095H   LINE      CODE     ---       #65
      01001098H   LINE      CODE     ---       #66
      0100109AH   LINE      CODE     ---       #67
      0100109AH   LINE      CODE     ---       #68
      0100109DH   LINE      CODE     ---       #69
      010010A0H   LINE      CODE     ---       #70
      010010A2H   LINE      CODE     ---       #71
      010010A2H   LINE      CODE     ---       #72
LX51 LINKER/LOCATER V4.66.30.0                                                        11/13/2019  15:40:31  PAGE 39


      010010A5H   LINE      CODE     ---       #73
      010010A8H   LINE      CODE     ---       #74
      010010AAH   LINE      CODE     ---       #75
      010010AAH   LINE      CODE     ---       #76
      010010ADH   LINE      CODE     ---       #77
      010010B0H   LINE      CODE     ---       #78
      010010B2H   LINE      CODE     ---       #79
      010010B2H   LINE      CODE     ---       #80
      010010B5H   LINE      CODE     ---       #81
      010010B8H   LINE      CODE     ---       #82
      010010BAH   LINE      CODE     ---       #83
      010010BAH   LINE      CODE     ---       #84
      010010BDH   LINE      CODE     ---       #85
      010010C0H   LINE      CODE     ---       #86
      010010C2H   LINE      CODE     ---       #87
      010010C2H   LINE      CODE     ---       #88
      010010C5H   LINE      CODE     ---       #89
      010010C8H   LINE      CODE     ---       #90
      010010CAH   LINE      CODE     ---       #91
      010010CAH   LINE      CODE     ---       #92
      010010CDH   LINE      CODE     ---       #93
      010010D0H   LINE      CODE     ---       #94
      010010D2H   LINE      CODE     ---       #95
      010010D2H   LINE      CODE     ---       #96
      010010D5H   LINE      CODE     ---       #97
      010010D8H   LINE      CODE     ---       #98
      010010DAH   LINE      CODE     ---       #99
      010010DAH   LINE      CODE     ---       #100
      010010E7H   LINE      CODE     ---       #101
      010010E7H   LINE      CODE     ---       #103
      010010EAH   LINE      CODE     ---       #104
      010010EDH   LINE      CODE     ---       #105
      010010F0H   LINE      CODE     ---       #107
      010010F3H   LINE      CODE     ---       #108
      010010F6H   LINE      CODE     ---       #109
      010010F9H   LINE      CODE     ---       #110
      010010FDH   LINE      CODE     ---       #111
      01001100H   LINE      CODE     ---       #112
      01001105H   LINE      CODE     ---       #113
      01001105H   LINE      CODE     ---       #114
      01001116H   LINE      CODE     ---       #115
      0100111BH   LINE      CODE     ---       #116
      0100111BH   LINE      CODE     ---       #117
      0100111BH   LINE      CODE     ---       #118
      0100111BH   LINE      CODE     ---       #119
      0100111EH   LINE      CODE     ---       #120
      ---         BLOCKEND  ---      ---       LVL=0

      010011ABH   BLOCK     CODE     ---       LVL=0
      00000007H   SYMBOL    DATA     BYTE      us
      010011ABH   BLOCK     CODE     NEAR LAB  LVL=1
      00000036H   SYMBOL    DATA     BYTE      TMER2H_value
      00000037H   SYMBOL    DATA     BYTE      TMER2L_value
      00000038H   SYMBOL    DATA     BYTE      TMR2CN0_TR2_save
      ---         BLOCKEND  ---      ---       LVL=1
      010011ABH   LINE      CODE     ---       #121
      010011ABH   LINE      CODE     ---       #122
      010011ABH   LINE      CODE     ---       #125
      010011B1H   LINE      CODE     ---       #126
      010011CEH   LINE      CODE     ---       #127
      010011CEH   LINE      CODE     ---       #128
      010011D1H   LINE      CODE     ---       #129
LX51 LINKER/LOCATER V4.66.30.0                                                        11/13/2019  15:40:31  PAGE 40


      010011D4H   LINE      CODE     ---       #130
      010011D6H   LINE      CODE     ---       #131
      010011D6H   LINE      CODE     ---       #132
      010011D9H   LINE      CODE     ---       #133
      010011DCH   LINE      CODE     ---       #134
      010011DEH   LINE      CODE     ---       #135
      010011DEH   LINE      CODE     ---       #136
      010011E1H   LINE      CODE     ---       #137
      010011E4H   LINE      CODE     ---       #138
      010011E6H   LINE      CODE     ---       #139
      010011E6H   LINE      CODE     ---       #140
      010011E9H   LINE      CODE     ---       #141
      010011ECH   LINE      CODE     ---       #142
      010011EEH   LINE      CODE     ---       #143
      010011EEH   LINE      CODE     ---       #144
      010011F1H   LINE      CODE     ---       #145
      010011F4H   LINE      CODE     ---       #146
      010011F6H   LINE      CODE     ---       #147
      010011F6H   LINE      CODE     ---       #148
      010011F9H   LINE      CODE     ---       #149
      010011FCH   LINE      CODE     ---       #150
      010011FEH   LINE      CODE     ---       #151
      010011FEH   LINE      CODE     ---       #152
      01001201H   LINE      CODE     ---       #153
      01001204H   LINE      CODE     ---       #154
      01001206H   LINE      CODE     ---       #155
      01001206H   LINE      CODE     ---       #156
      01001213H   LINE      CODE     ---       #157
      01001213H   LINE      CODE     ---       #159
      01001216H   LINE      CODE     ---       #160
      01001219H   LINE      CODE     ---       #161
      0100121CH   LINE      CODE     ---       #163
      0100121FH   LINE      CODE     ---       #164
      01001222H   LINE      CODE     ---       #165
      01001225H   LINE      CODE     ---       #166
      01001229H   LINE      CODE     ---       #167
      0100122CH   LINE      CODE     ---       #168
      ---         BLOCKEND  ---      ---       LVL=0

      01001525H   BLOCK     CODE     ---       LVL=0
      01001525H   BLOCK     CODE     NEAR LAB  LVL=1
      00000036H   SYMBOL    DATA     BYTE      TMR2CN0_TR2_save
      ---         BLOCKEND  ---      ---       LVL=1
      01001525H   LINE      CODE     ---       #170
      01001525H   LINE      CODE     ---       #171
      01001525H   LINE      CODE     ---       #172
      0100152BH   LINE      CODE     ---       #173
      0100152EH   LINE      CODE     ---       #174
      ---         BLOCKEND  ---      ---       LVL=0

      0100131CH   BLOCK     CODE     ---       LVL=0
      01001327H   BLOCK     CODE     NEAR LAB  LVL=1
      00000008H   SYMBOL    DATA     DWORD     result
      ---         BLOCKEND  ---      ---       LVL=1
      0100131CH   LINE      CODE     ---       #176
      01001327H   LINE      CODE     ---       #178
      01001333H   LINE      CODE     ---       #181
      01001335H   LINE      CODE     ---       #183
      01001342H   LINE      CODE     ---       #198
      ---         BLOCKEND  ---      ---       LVL=0

      01001483H   BLOCK     CODE     ---       LVL=0
LX51 LINKER/LOCATER V4.66.30.0                                                        11/13/2019  15:40:31  PAGE 41


      01001483H   LINE      CODE     ---       #199
      01001485H   LINE      CODE     ---       #201
      01001487H   LINE      CODE     ---       #202
      0100148FH   LINE      CODE     ---       #204
      01001497H   LINE      CODE     ---       #205
      ---         BLOCKEND  ---      ---       LVL=0

      ---         MODULE    ---      ---       ?C_STARTUP
      01000000H   PUBLIC    CODE     NEAR LAB  ?C_STARTUP
      000000E0H   SFRSYM    DATA     BYTE      ACC
      000000F0H   SFRSYM    DATA     BYTE      B
      00000083H   SFRSYM    DATA     BYTE      DPH
      00000082H   SFRSYM    DATA     BYTE      DPL
      000000A0H   SFRSYM    DATA     BYTE      PPAGE_SFR
      00000081H   SFRSYM    DATA     BYTE      SP
      00000000H   SYMBOL    NUMBER   ---       IBPSTACK
      00000100H   SYMBOL    NUMBER   ---       IBPSTACKTOP
      00000080H   SYMBOL    NUMBER   ---       IDATALEN
      01001122H   SYMBOL    CODE     NEAR LAB  IDATALOOP
      00000000H   SYMBOL    NUMBER   ---       PBPSTACK
      00000100H   SYMBOL    NUMBER   ---       PBPSTACKTOP
      00000000H   SYMBOL    NUMBER   ---       PDATALEN
      00000000H   SYMBOL    NUMBER   ---       PDATASTART
      00000000H   SYMBOL    NUMBER   ---       PPAGE
      00000000H   SYMBOL    NUMBER   ---       PPAGEENABLE
      0100111FH   SYMBOL    CODE     NEAR LAB  STARTUP1
      00000000H   SYMBOL    NUMBER   ---       XBPSTACK
      00010000H   SYMBOL    NUMBER   ---       XBPSTACKTOP
      00000000H   SYMBOL    NUMBER   ---       XDATALEN
      00000000H   SYMBOL    NUMBER   ---       XDATASTART

      01000000H   BLOCK     CODE     NEAR LAB  LVL=0
      01000000H   LINE      CODE     ---       #126
      ---         BLOCKEND  ---      ---       LVL=0

      0100111FH   BLOCK     CODE     NEAR LAB  LVL=0
      0100111FH   LINE      CODE     ---       #138
      01001121H   LINE      CODE     ---       #139
      01001122H   LINE      CODE     ---       #140
      01001123H   LINE      CODE     ---       #141
      01001125H   LINE      CODE     ---       #190
      01001128H   LINE      CODE     ---       #201
      ---         BLOCKEND  ---      ---       LVL=0

      ---         MODULE    ---      ---       SMARTCLOCK
      0000007EH   PUBLIC    DATA     BYTE      RTC0CN0_Local
      000000A2H   SFRSYM    DATA     BYTE      SPI0CKR
      00000080H   SFRSYM    DATA     BYTE      P0
      000000D0H.2 SFRSYM    DATA     BIT       PSW_OV
      000000B1H   SFRSYM    DATA     BYTE      XOSC0CN
      00000090H   SFRSYM    DATA     BYTE      P1
      000000A0H   SFRSYM    DATA     BYTE      P2
      00000097H   SFRSYM    DATA     BYTE      ADC0CF
      000000C0H.7 SFRSYM    DATA     BIT       SMB0CN0_MASTER
      000000F9H   SFRSYM    DATA     WORD      PCA0
      000000AEH   SFRSYM    DATA     BYTE      RTC0KEY
      000000E6H   SFRSYM    DATA     BYTE      EIE1
      000000C0H.1 SFRSYM    DATA     BIT       SMB0CN0_ACK
      000000E7H   SFRSYM    DATA     BYTE      EIE2
      0000008FH   SFRSYM    DATA     BYTE      PSCTL
      000000E4H   SFRSYM    DATA     BYTE      IT01CF
      000000B0H   SFRSYM    DATA     BYTE      CS0CN0
LX51 LINKER/LOCATER V4.66.30.0                                                        11/13/2019  15:40:31  PAGE 42


      000000C0H.6 SFRSYM    DATA     BIT       SMB0CN0_TXMODE
      000000E3H   SFRSYM    DATA     BYTE      DERIVID
      000000AFH   SFRSYM    DATA     BYTE      CS0MD1
      000000A7H   SFRSYM    DATA     BYTE      SFRPAGE
      000000F3H   SFRSYM    DATA     BYTE      CS0MD2
      000000A4H   SFRSYM    DATA     BYTE      P0MDOUT
      000000F3H   SFRSYM    DATA     BYTE      CS0MD3
      000000A5H   SFRSYM    DATA     BYTE      P1MDOUT
      000000E8H.5 SFRSYM    DATA     BIT       ADC0CN0_ADINT
      000000CBH   SFRSYM    DATA     BYTE      TMR2RLH
      000000A6H   SFRSYM    DATA     BYTE      P2MDOUT
      000000A8H   SFRSYM    DATA     BYTE      IE
      00000093H   SFRSYM    DATA     BYTE      TMR3RLH
      000000F6H   SFRSYM    DATA     BYTE      EIP1
      000000F7H   SFRSYM    DATA     BYTE      EIP2
      00000098H.2 SFRSYM    DATA     BIT       SCON0_RB8
      000000CAH   SFRSYM    DATA     BYTE      TMR2RLL
      000000FCH   SFRSYM    DATA     BYTE      PCA0CPH0
      00000092H   SFRSYM    DATA     BYTE      TMR3RLL
      000000EAH   SFRSYM    DATA     BYTE      PCA0CPH1
      00000098H.3 SFRSYM    DATA     BIT       SCON0_TB8
      000000B0H.7 SFRSYM    DATA     BIT       CS0CN0_CSEN
      000000F0H   SFRSYM    DATA     BIT       B_B0
      00000082H   SFRSYM    DATA     WORD      DP
      000000ECH   SFRSYM    DATA     BYTE      PCA0CPH2
      000000F0H.1 SFRSYM    DATA     BIT       B_B1
      000000C3H   SFRSYM    DATA     WORD      ADC0GT
      000000F0H.2 SFRSYM    DATA     BIT       B_B2
      000000FBH   SFRSYM    DATA     BYTE      PCA0CPL0
      000000F0H.3 SFRSYM    DATA     BIT       B_B3
      000000D9H   SFRSYM    DATA     BYTE      PCA0MD
      000000DAH   SFRSYM    DATA     BYTE      PCA0CPM0
      000000E9H   SFRSYM    DATA     BYTE      PCA0CPL1
      000000F0H.4 SFRSYM    DATA     BIT       B_B4
      000000DBH   SFRSYM    DATA     BYTE      PCA0CPM1
      000000EBH   SFRSYM    DATA     BYTE      PCA0CPL2
      000000F0H.5 SFRSYM    DATA     BIT       B_B5
      000000DCH   SFRSYM    DATA     BYTE      PCA0CPM2
      000000B8H   SFRSYM    DATA     BYTE      IP
      000000BCH   SFRSYM    DATA     BYTE      ADC0TK
      000000F0H.6 SFRSYM    DATA     BIT       B_B6
      000000C5H   SFRSYM    DATA     WORD      ADC0LT
      000000D6H   SFRSYM    DATA     BYTE      IREF0CN0
      00000098H.5 SFRSYM    DATA     BIT       SCON0_MCE
      000000F0H.7 SFRSYM    DATA     BIT       B_B7
      000000E1H   SFRSYM    DATA     BYTE      XBR0
      000000C1H   SFRSYM    DATA     BYTE      SMB0CF
      000000E2H   SFRSYM    DATA     BYTE      XBR1
      000000D2H   SFRSYM    DATA     BYTE      CS0SCAN0
      000000C0H.5 SFRSYM    DATA     BIT       SMB0CN0_STA
      000000E3H   SFRSYM    DATA     BYTE      XBR2
      000000D3H   SFRSYM    DATA     BYTE      CS0SCAN1
      00000096H   SFRSYM    DATA     BYTE      ADC0MX
      000000E0H   SFRSYM    DATA     BIT       ACC_ACC0
      000000D1H   SFRSYM    DATA     BYTE      REF0CN
      000000B2H   SFRSYM    DATA     BYTE      HFO0CN
      0000008EH   SFRSYM    DATA     BYTE      CKCON0
      000000E0H.1 SFRSYM    DATA     BIT       ACC_ACC1
      000000C9H   SFRSYM    DATA     BYTE      REG0CN
      00000085H   SFRSYM    DATA     BYTE      CRC0IN
      000000C8H.2 SFRSYM    DATA     BIT       TMR2CN0_TR2
      000000E0H.2 SFRSYM    DATA     BIT       ACC_ACC2
LX51 LINKER/LOCATER V4.66.30.0                                                        11/13/2019  15:40:31  PAGE 43


      000000E0H.3 SFRSYM    DATA     BIT       ACC_ACC3
      00000081H   SFRSYM    DATA     BYTE      SP
      0000009DH   SFRSYM    DATA     BYTE      CMP0MD
      000000E0H.4 SFRSYM    DATA     BIT       ACC_ACC4
      000000D8H   SFRSYM    DATA     BIT       PCA0CN0_CCF0
      000000E0H.5 SFRSYM    DATA     BIT       ACC_ACC5
      000000D8H.1 SFRSYM    DATA     BIT       PCA0CN0_CCF1
      000000E0H.6 SFRSYM    DATA     BIT       ACC_ACC6
      000000CCH   SFRSYM    DATA     WORD      TMR2
      000000D8H.2 SFRSYM    DATA     BIT       PCA0CN0_CCF2
      000000E0H.7 SFRSYM    DATA     BIT       ACC_ACC7
      00000094H   SFRSYM    DATA     WORD      TMR3
      000000B0H   SFRSYM    DATA     BIT       CS0CN0_CSCMPF
      000000C0H.3 SFRSYM    DATA     BIT       SMB0CN0_ACKRQ
      000000FFH   SFRSYM    DATA     BYTE      VDM0CN
      000000F1H   SFRSYM    DATA     BYTE      P0MDIN
      00000098H.4 SFRSYM    DATA     BIT       SCON0_REN
      000000F2H   SFRSYM    DATA     BYTE      P1MDIN
      000000FEH   SFRSYM    DATA     BYTE      CS0THH
      000000C0H.4 SFRSYM    DATA     BIT       SMB0CN0_STO
      000000B5H   SFRSYM    DATA     BYTE      PMU0CF
      000000C7H   SFRSYM    DATA     BYTE      P0MASK
      000000BFH   SFRSYM    DATA     BYTE      P1MASK
      000000FDH   SFRSYM    DATA     BYTE      CS0THL
      000000D0H.3 SFRSYM    DATA     BIT       PSW_RS0
      000000D8H.7 SFRSYM    DATA     BIT       PCA0CN0_CF
      000000F8H.4 SFRSYM    DATA     BIT       SPI0CN0_RXOVRN
      000000D0H.4 SFRSYM    DATA     BIT       PSW_RS1
      000000C8H   SFRSYM    DATA     BIT       TMR2CN0_T2XCLK0
      000000C8H.1 SFRSYM    DATA     BIT       TMR2CN0_T2XCLK1
      000000E8H.7 SFRSYM    DATA     BIT       ADC0CN0_ADEN
      00000089H   SFRSYM    DATA     BYTE      TMOD
      00000088H   SFRSYM    DATA     BYTE      TCON
      000000B5H   SFRSYM    DATA     BYTE      PMU0MD
      000000CEH   SFRSYM    DATA     BYTE      PMU0FL
      0000009CH   SFRSYM    DATA     BYTE      CRC0FLIP
      000000D0H   SFRSYM    DATA     BIT       PSW_PARITY
      000000A8H.4 SFRSYM    DATA     BIT       IE_ES0
      0000009FH   SFRSYM    DATA     BYTE      CMP0MX
      000000A8H.1 SFRSYM    DATA     BIT       IE_ET0
      000000A8H.3 SFRSYM    DATA     BIT       IE_ET1
      000000D4H   SFRSYM    DATA     BYTE      P0SKIP
      000000A8H.5 SFRSYM    DATA     BIT       IE_ET2
      000000D5H   SFRSYM    DATA     BYTE      P1SKIP
      000000E8H   SFRSYM    DATA     BYTE      ADC0CN0
      000000A8H   SFRSYM    DATA     BIT       IE_EX0
      000000D8H.6 SFRSYM    DATA     BIT       PCA0CN0_CR
      000000A8H.2 SFRSYM    DATA     BIT       IE_EX1
      00000098H.7 SFRSYM    DATA     BIT       SCON0_SMODE
      000000A9H   SFRSYM    DATA     BYTE      CLKSEL
      000000F8H   SFRSYM    DATA     BIT       SPI0CN0_SPIEN
      000000F0H   SFRSYM    DATA     BYTE      B
      000000BEH   SFRSYM    DATA     BYTE      ADC0H
      0000009EH   SFRSYM    DATA     BYTE      CRC0AUTO
      000000B0H.4 SFRSYM    DATA     BIT       CS0CN0_CSBUSY
      000000E8H.6 SFRSYM    DATA     BIT       ADC0CN0_ADBMEN
      000000CAH   SFRSYM    DATA     WORD      TMR2RL
      000000BDH   SFRSYM    DATA     BYTE      ADC0L
      00000092H   SFRSYM    DATA     WORD      TMR3RL
      000000D8H   SFRSYM    DATA     BYTE      PCA0CN0
      000000E0H   SFRSYM    DATA     BYTE      ACC
      000000FBH   SFRSYM    DATA     WORD      PCA0CP0
LX51 LINKER/LOCATER V4.66.30.0                                                        11/13/2019  15:40:31  PAGE 44


      000000E9H   SFRSYM    DATA     WORD      PCA0CP1
      000000EBH   SFRSYM    DATA     WORD      PCA0CP2
      00000084H   SFRSYM    DATA     BYTE      CRC0CN0
      0000008CH   SFRSYM    DATA     BYTE      TH0
      000000B8H.4 SFRSYM    DATA     BIT       IP_PS0
      0000008DH   SFRSYM    DATA     BYTE      TH1
      000000FAH   SFRSYM    DATA     BYTE      PCA0H
      000000B8H.1 SFRSYM    DATA     BIT       IP_PT0
      000000B8H.3 SFRSYM    DATA     BIT       IP_PT1
      000000C0H.2 SFRSYM    DATA     BIT       SMB0CN0_ARBLOST
      000000B8H.5 SFRSYM    DATA     BIT       IP_PT2
      0000008AH   SFRSYM    DATA     BYTE      TL0
      000000AAH   SFRSYM    DATA     BYTE      CS0CF
      000000F8H.1 SFRSYM    DATA     BIT       SPI0CN0_TXBMT
      000000D0H.5 SFRSYM    DATA     BIT       PSW_F0
      000000A8H.6 SFRSYM    DATA     BIT       IE_ESPI0
      0000008BH   SFRSYM    DATA     BYTE      TL1
      000000F9H   SFRSYM    DATA     BYTE      PCA0L
      000000C0H   SFRSYM    DATA     BIT       SMB0CN0_SI
      000000D0H.1 SFRSYM    DATA     BIT       PSW_F1
      00000080H   SFRSYM    DATA     BIT       P0_B0
      000000B8H   SFRSYM    DATA     BIT       IP_PX0
      00000090H   SFRSYM    DATA     BIT       P1_B0
      00000080H.1 SFRSYM    DATA     BIT       P0_B1
      000000B8H.2 SFRSYM    DATA     BIT       IP_PX1
      000000EEH   SFRSYM    DATA     BYTE      CS0DH
      0000009BH   SFRSYM    DATA     BYTE      CMP0CN0
      00000088H.1 SFRSYM    DATA     BIT       TCON_IE0
      00000090H.1 SFRSYM    DATA     BIT       P1_B1
      00000080H.2 SFRSYM    DATA     BIT       P0_B2
      00000088H.3 SFRSYM    DATA     BIT       TCON_IE1
      00000090H.2 SFRSYM    DATA     BIT       P1_B2
      00000080H.3 SFRSYM    DATA     BIT       P0_B3
      000000C0H   SFRSYM    DATA     BYTE      SMB0CN0
      00000090H.3 SFRSYM    DATA     BIT       P1_B3
      00000080H.4 SFRSYM    DATA     BIT       P0_B4
      00000090H.4 SFRSYM    DATA     BIT       P1_B4
      00000080H.5 SFRSYM    DATA     BIT       P0_B5
      000000EDH   SFRSYM    DATA     BYTE      CS0DL
      00000090H.5 SFRSYM    DATA     BIT       P1_B5
      00000080H.6 SFRSYM    DATA     BIT       P0_B6
      00000090H.6 SFRSYM    DATA     BIT       P1_B6
      00000080H.7 SFRSYM    DATA     BIT       P0_B7
      00000090H.7 SFRSYM    DATA     BIT       P1_B7
      000000A0H.7 SFRSYM    DATA     BIT       P2_B7
      00000083H   SFRSYM    DATA     BYTE      DPH
      000000C4H   SFRSYM    DATA     BYTE      ADC0GTH
      000000C8H.7 SFRSYM    DATA     BIT       TMR2CN0_TF2H
      000000C8H.3 SFRSYM    DATA     BIT       TMR2CN0_T2SPLIT
      000000D0H.6 SFRSYM    DATA     BIT       PSW_AC
      000000F8H   SFRSYM    DATA     BYTE      SPI0CN0
      000000B3H   SFRSYM    DATA     BYTE      HFO0CAL
      000000DEH   SFRSYM    DATA     BYTE      CS0SE
      00000088H.5 SFRSYM    DATA     BIT       TCON_TF0
      00000098H   SFRSYM    DATA     BIT       SCON0_RI
      00000082H   SFRSYM    DATA     BYTE      DPL
      00000088H.7 SFRSYM    DATA     BIT       TCON_TF1
      00000099H   SFRSYM    DATA     BYTE      SBUF0
      00000087H   SFRSYM    DATA     BYTE      PCON0
      000000B9H   SFRSYM    DATA     BYTE      IREF0CF
      000000C3H   SFRSYM    DATA     BYTE      ADC0GTL
      000000C8H.6 SFRSYM    DATA     BIT       TMR2CN0_TF2L
LX51 LINKER/LOCATER V4.66.30.0                                                        11/13/2019  15:40:31  PAGE 45


      00000098H.1 SFRSYM    DATA     BIT       SCON0_TI
      000000E8H   SFRSYM    DATA     BIT       ADC0CN0_ADCM0
      000000C6H   SFRSYM    DATA     BYTE      ADC0LTH
      00000088H   SFRSYM    DATA     BIT       TCON_IT0
      000000B0H.1 SFRSYM    DATA     BIT       CS0CN0_CSPME
      000000E8H.1 SFRSYM    DATA     BIT       ADC0CN0_ADCM1
      000000EFH   SFRSYM    DATA     BYTE      RSTSRC
      000000D7H   SFRSYM    DATA     BYTE      P0MAT
      00000086H   SFRSYM    DATA     BYTE      CRC0DAT
      00000088H.2 SFRSYM    DATA     BIT       TCON_IT1
      000000E8H.2 SFRSYM    DATA     BIT       ADC0CN0_ADCM2
      00000098H   SFRSYM    DATA     BYTE      SCON0
      000000CFH   SFRSYM    DATA     BYTE      P1MAT
      000000DEH   SFRSYM    DATA     BYTE      CS0PM
      000000E8H.3 SFRSYM    DATA     BIT       ADC0CN0_ADWINT
      000000E8H.4 SFRSYM    DATA     BIT       ADC0CN0_ADBUSY
      000000F5H   SFRSYM    DATA     BYTE      SMB0ADM
      000000C5H   SFRSYM    DATA     BYTE      ADC0LTL
      000000F8H.5 SFRSYM    DATA     BIT       SPI0CN0_MODF
      000000B8H.6 SFRSYM    DATA     BIT       IP_PSPI0
      000000B0H.6 SFRSYM    DATA     BIT       CS0CN0_CSEOS
      000000C8H   SFRSYM    DATA     BYTE      TMR2CN0
      00000091H   SFRSYM    DATA     BYTE      TMR3CN0
      000000F4H   SFRSYM    DATA     BYTE      SMB0ADR
      00000088H.4 SFRSYM    DATA     BIT       TCON_TR0
      000000B0H.5 SFRSYM    DATA     BIT       CS0CN0_CSINT
      000000ABH   SFRSYM    DATA     BYTE      CS0MX
      000000C8H.4 SFRSYM    DATA     BIT       TMR2CN0_TF2CEN
      00000088H.6 SFRSYM    DATA     BIT       TCON_TR1
      000000C2H   SFRSYM    DATA     BYTE      SMB0DAT
      00000099H   SFRSYM    DATA     BYTE      P0DRV
      000000DDH   SFRSYM    DATA     BYTE      CS0SS
      000000CDH   SFRSYM    DATA     BYTE      TMR2H
      000000A1H   SFRSYM    DATA     BYTE      SPI0CFG
      0000009BH   SFRSYM    DATA     BYTE      P1DRV
      00000095H   SFRSYM    DATA     BYTE      TMR3H
      0000009DH   SFRSYM    DATA     BYTE      P2DRV
      0000009AH   SFRSYM    DATA     BYTE      CRC0CNT
      000000CCH   SFRSYM    DATA     BYTE      TMR2L
      000000ACH   SFRSYM    DATA     BYTE      RTC0ADR
      000000F8H.7 SFRSYM    DATA     BIT       SPI0CN0_SPIF
      00000094H   SFRSYM    DATA     BYTE      TMR3L
      000000BBH   SFRSYM    DATA     BYTE      ADC0PWR
      000000A8H.7 SFRSYM    DATA     BIT       IE_EA
      000000ADH   SFRSYM    DATA     BYTE      RTC0DAT
      000000B0H.3 SFRSYM    DATA     BIT       CS0CN0_CSCMPEN
      000000B6H   SFRSYM    DATA     BYTE      FLSCL
      000000C8H.5 SFRSYM    DATA     BIT       TMR2CN0_TF2LEN
      000000F8H.6 SFRSYM    DATA     BIT       SPI0CN0_WCOL
      000000F8H.2 SFRSYM    DATA     BIT       SPI0CN0_NSSMD0
      000000D0H.7 SFRSYM    DATA     BIT       PSW_CY
      000000A3H   SFRSYM    DATA     BYTE      SPI0DAT
      000000F8H.3 SFRSYM    DATA     BIT       SPI0CN0_NSSMD1
      000000BDH   SFRSYM    DATA     WORD      ADC0
      0000008EH   SFRSYM    DATA     BYTE      TOFFH
      000000D0H   SFRSYM    DATA     BYTE      PSW
      000000DFH   SFRSYM    DATA     BYTE      PCA0PWM
      000000E2H   SFRSYM    DATA     BYTE      REVID
      0000008DH   SFRSYM    DATA     BYTE      TOFFL
      000000B7H   SFRSYM    DATA     BYTE      FLKEY
      000000BAH   SFRSYM    DATA     BYTE      ADC0AC
      00000007H   SYMBOL    DATA     BYTE      reg
LX51 LINKER/LOCATER V4.66.30.0                                                        11/13/2019  15:40:31  PAGE 46


      00000007H   SYMBOL    DATA     BYTE      reg
      00000005H   SYMBOL    DATA     BYTE      value
      00000004H   SYMBOL    DATA     DWORD     alarm
      00000004H   SYMBOL    DATA     DWORD     time
      00000007H   SYMBOL    DATA     BYTE      bits
      00000007H   SYMBOL    DATA     BYTE      bits

      ---         MODULE    ---      ---       POWER
      000000A2H   SFRSYM    DATA     BYTE      SPI0CKR
      00000080H   SFRSYM    DATA     BYTE      P0
      000000D0H.2 SFRSYM    DATA     BIT       PSW_OV
      000000B1H   SFRSYM    DATA     BYTE      XOSC0CN
      00000090H   SFRSYM    DATA     BYTE      P1
      000000A0H   SFRSYM    DATA     BYTE      P2
      00000097H   SFRSYM    DATA     BYTE      ADC0CF
      000000C0H.7 SFRSYM    DATA     BIT       SMB0CN0_MASTER
      000000F9H   SFRSYM    DATA     WORD      PCA0
      000000AEH   SFRSYM    DATA     BYTE      RTC0KEY
      000000E6H   SFRSYM    DATA     BYTE      EIE1
      000000C0H.1 SFRSYM    DATA     BIT       SMB0CN0_ACK
      000000E7H   SFRSYM    DATA     BYTE      EIE2
      0000008FH   SFRSYM    DATA     BYTE      PSCTL
      000000E4H   SFRSYM    DATA     BYTE      IT01CF
      000000B0H   SFRSYM    DATA     BYTE      CS0CN0
      000000C0H.6 SFRSYM    DATA     BIT       SMB0CN0_TXMODE
      000000E3H   SFRSYM    DATA     BYTE      DERIVID
      000000AFH   SFRSYM    DATA     BYTE      CS0MD1
      000000A7H   SFRSYM    DATA     BYTE      SFRPAGE
      000000F3H   SFRSYM    DATA     BYTE      CS0MD2
      000000A4H   SFRSYM    DATA     BYTE      P0MDOUT
      000000F3H   SFRSYM    DATA     BYTE      CS0MD3
      000000A5H   SFRSYM    DATA     BYTE      P1MDOUT
      000000E8H.5 SFRSYM    DATA     BIT       ADC0CN0_ADINT
      000000CBH   SFRSYM    DATA     BYTE      TMR2RLH
      000000A6H   SFRSYM    DATA     BYTE      P2MDOUT
      000000A8H   SFRSYM    DATA     BYTE      IE
      00000093H   SFRSYM    DATA     BYTE      TMR3RLH
      000000F6H   SFRSYM    DATA     BYTE      EIP1
      000000F7H   SFRSYM    DATA     BYTE      EIP2
      00000098H.2 SFRSYM    DATA     BIT       SCON0_RB8
      000000CAH   SFRSYM    DATA     BYTE      TMR2RLL
      000000FCH   SFRSYM    DATA     BYTE      PCA0CPH0
      00000092H   SFRSYM    DATA     BYTE      TMR3RLL
      000000EAH   SFRSYM    DATA     BYTE      PCA0CPH1
      00000098H.3 SFRSYM    DATA     BIT       SCON0_TB8
      000000B0H.7 SFRSYM    DATA     BIT       CS0CN0_CSEN
      000000F0H   SFRSYM    DATA     BIT       B_B0
      00000082H   SFRSYM    DATA     WORD      DP
      000000ECH   SFRSYM    DATA     BYTE      PCA0CPH2
      000000F0H.1 SFRSYM    DATA     BIT       B_B1
      000000C3H   SFRSYM    DATA     WORD      ADC0GT
      000000F0H.2 SFRSYM    DATA     BIT       B_B2
      000000FBH   SFRSYM    DATA     BYTE      PCA0CPL0
      000000F0H.3 SFRSYM    DATA     BIT       B_B3
      000000D9H   SFRSYM    DATA     BYTE      PCA0MD
      000000DAH   SFRSYM    DATA     BYTE      PCA0CPM0
      000000E9H   SFRSYM    DATA     BYTE      PCA0CPL1
      000000F0H.4 SFRSYM    DATA     BIT       B_B4
      000000DBH   SFRSYM    DATA     BYTE      PCA0CPM1
      000000EBH   SFRSYM    DATA     BYTE      PCA0CPL2
      000000F0H.5 SFRSYM    DATA     BIT       B_B5
      000000DCH   SFRSYM    DATA     BYTE      PCA0CPM2
LX51 LINKER/LOCATER V4.66.30.0                                                        11/13/2019  15:40:31  PAGE 47


      000000B8H   SFRSYM    DATA     BYTE      IP
      000000BCH   SFRSYM    DATA     BYTE      ADC0TK
      000000F0H.6 SFRSYM    DATA     BIT       B_B6
      000000C5H   SFRSYM    DATA     WORD      ADC0LT
      000000D6H   SFRSYM    DATA     BYTE      IREF0CN0
      00000098H.5 SFRSYM    DATA     BIT       SCON0_MCE
      000000F0H.7 SFRSYM    DATA     BIT       B_B7
      000000E1H   SFRSYM    DATA     BYTE      XBR0
      000000C1H   SFRSYM    DATA     BYTE      SMB0CF
      000000E2H   SFRSYM    DATA     BYTE      XBR1
      000000D2H   SFRSYM    DATA     BYTE      CS0SCAN0
      000000C0H.5 SFRSYM    DATA     BIT       SMB0CN0_STA
      000000E3H   SFRSYM    DATA     BYTE      XBR2
      000000D3H   SFRSYM    DATA     BYTE      CS0SCAN1
      00000096H   SFRSYM    DATA     BYTE      ADC0MX
      000000E0H   SFRSYM    DATA     BIT       ACC_ACC0
      000000D1H   SFRSYM    DATA     BYTE      REF0CN
      000000B2H   SFRSYM    DATA     BYTE      HFO0CN
      0000008EH   SFRSYM    DATA     BYTE      CKCON0
      000000E0H.1 SFRSYM    DATA     BIT       ACC_ACC1
      000000C9H   SFRSYM    DATA     BYTE      REG0CN
      00000085H   SFRSYM    DATA     BYTE      CRC0IN
      000000C8H.2 SFRSYM    DATA     BIT       TMR2CN0_TR2
      000000E0H.2 SFRSYM    DATA     BIT       ACC_ACC2
      000000E0H.3 SFRSYM    DATA     BIT       ACC_ACC3
      00000081H   SFRSYM    DATA     BYTE      SP
      0000009DH   SFRSYM    DATA     BYTE      CMP0MD
      000000E0H.4 SFRSYM    DATA     BIT       ACC_ACC4
      000000D8H   SFRSYM    DATA     BIT       PCA0CN0_CCF0
      000000E0H.5 SFRSYM    DATA     BIT       ACC_ACC5
      000000D8H.1 SFRSYM    DATA     BIT       PCA0CN0_CCF1
      000000E0H.6 SFRSYM    DATA     BIT       ACC_ACC6
      000000CCH   SFRSYM    DATA     WORD      TMR2
      000000D8H.2 SFRSYM    DATA     BIT       PCA0CN0_CCF2
      000000E0H.7 SFRSYM    DATA     BIT       ACC_ACC7
      00000094H   SFRSYM    DATA     WORD      TMR3
      000000B0H   SFRSYM    DATA     BIT       CS0CN0_CSCMPF
      000000C0H.3 SFRSYM    DATA     BIT       SMB0CN0_ACKRQ
      000000FFH   SFRSYM    DATA     BYTE      VDM0CN
      000000F1H   SFRSYM    DATA     BYTE      P0MDIN
      00000098H.4 SFRSYM    DATA     BIT       SCON0_REN
      000000F2H   SFRSYM    DATA     BYTE      P1MDIN
      000000FEH   SFRSYM    DATA     BYTE      CS0THH
      000000C0H.4 SFRSYM    DATA     BIT       SMB0CN0_STO
      000000B5H   SFRSYM    DATA     BYTE      PMU0CF
      000000C7H   SFRSYM    DATA     BYTE      P0MASK
      000000BFH   SFRSYM    DATA     BYTE      P1MASK
      000000FDH   SFRSYM    DATA     BYTE      CS0THL
      000000D0H.3 SFRSYM    DATA     BIT       PSW_RS0
      000000D8H.7 SFRSYM    DATA     BIT       PCA0CN0_CF
      000000F8H.4 SFRSYM    DATA     BIT       SPI0CN0_RXOVRN
      000000D0H.4 SFRSYM    DATA     BIT       PSW_RS1
      000000C8H   SFRSYM    DATA     BIT       TMR2CN0_T2XCLK0
      000000C8H.1 SFRSYM    DATA     BIT       TMR2CN0_T2XCLK1
      000000E8H.7 SFRSYM    DATA     BIT       ADC0CN0_ADEN
      00000089H   SFRSYM    DATA     BYTE      TMOD
      00000088H   SFRSYM    DATA     BYTE      TCON
      000000B5H   SFRSYM    DATA     BYTE      PMU0MD
      000000CEH   SFRSYM    DATA     BYTE      PMU0FL
      0000009CH   SFRSYM    DATA     BYTE      CRC0FLIP
      000000D0H   SFRSYM    DATA     BIT       PSW_PARITY
      000000A8H.4 SFRSYM    DATA     BIT       IE_ES0
LX51 LINKER/LOCATER V4.66.30.0                                                        11/13/2019  15:40:31  PAGE 48


      0000009FH   SFRSYM    DATA     BYTE      CMP0MX
      000000A8H.1 SFRSYM    DATA     BIT       IE_ET0
      000000A8H.3 SFRSYM    DATA     BIT       IE_ET1
      000000D4H   SFRSYM    DATA     BYTE      P0SKIP
      000000A8H.5 SFRSYM    DATA     BIT       IE_ET2
      000000D5H   SFRSYM    DATA     BYTE      P1SKIP
      000000E8H   SFRSYM    DATA     BYTE      ADC0CN0
      000000A8H   SFRSYM    DATA     BIT       IE_EX0
      000000D8H.6 SFRSYM    DATA     BIT       PCA0CN0_CR
      000000A8H.2 SFRSYM    DATA     BIT       IE_EX1
      00000098H.7 SFRSYM    DATA     BIT       SCON0_SMODE
      000000A9H   SFRSYM    DATA     BYTE      CLKSEL
      000000F8H   SFRSYM    DATA     BIT       SPI0CN0_SPIEN
      000000F0H   SFRSYM    DATA     BYTE      B
      000000BEH   SFRSYM    DATA     BYTE      ADC0H
      0000009EH   SFRSYM    DATA     BYTE      CRC0AUTO
      000000B0H.4 SFRSYM    DATA     BIT       CS0CN0_CSBUSY
      000000E8H.6 SFRSYM    DATA     BIT       ADC0CN0_ADBMEN
      000000CAH   SFRSYM    DATA     WORD      TMR2RL
      000000BDH   SFRSYM    DATA     BYTE      ADC0L
      00000092H   SFRSYM    DATA     WORD      TMR3RL
      000000D8H   SFRSYM    DATA     BYTE      PCA0CN0
      000000E0H   SFRSYM    DATA     BYTE      ACC
      000000FBH   SFRSYM    DATA     WORD      PCA0CP0
      000000E9H   SFRSYM    DATA     WORD      PCA0CP1
      000000EBH   SFRSYM    DATA     WORD      PCA0CP2
      00000084H   SFRSYM    DATA     BYTE      CRC0CN0
      0000008CH   SFRSYM    DATA     BYTE      TH0
      000000B8H.4 SFRSYM    DATA     BIT       IP_PS0
      0000008DH   SFRSYM    DATA     BYTE      TH1
      000000FAH   SFRSYM    DATA     BYTE      PCA0H
      000000B8H.1 SFRSYM    DATA     BIT       IP_PT0
      000000B8H.3 SFRSYM    DATA     BIT       IP_PT1
      000000C0H.2 SFRSYM    DATA     BIT       SMB0CN0_ARBLOST
      000000B8H.5 SFRSYM    DATA     BIT       IP_PT2
      0000008AH   SFRSYM    DATA     BYTE      TL0
      000000AAH   SFRSYM    DATA     BYTE      CS0CF
      000000F8H.1 SFRSYM    DATA     BIT       SPI0CN0_TXBMT
      000000D0H.5 SFRSYM    DATA     BIT       PSW_F0
      000000A8H.6 SFRSYM    DATA     BIT       IE_ESPI0
      0000008BH   SFRSYM    DATA     BYTE      TL1
      000000F9H   SFRSYM    DATA     BYTE      PCA0L
      000000C0H   SFRSYM    DATA     BIT       SMB0CN0_SI
      000000D0H.1 SFRSYM    DATA     BIT       PSW_F1
      00000080H   SFRSYM    DATA     BIT       P0_B0
      000000B8H   SFRSYM    DATA     BIT       IP_PX0
      00000090H   SFRSYM    DATA     BIT       P1_B0
      00000080H.1 SFRSYM    DATA     BIT       P0_B1
      000000B8H.2 SFRSYM    DATA     BIT       IP_PX1
      000000EEH   SFRSYM    DATA     BYTE      CS0DH
      0000009BH   SFRSYM    DATA     BYTE      CMP0CN0
      00000088H.1 SFRSYM    DATA     BIT       TCON_IE0
      00000090H.1 SFRSYM    DATA     BIT       P1_B1
      00000080H.2 SFRSYM    DATA     BIT       P0_B2
      00000088H.3 SFRSYM    DATA     BIT       TCON_IE1
      00000090H.2 SFRSYM    DATA     BIT       P1_B2
      00000080H.3 SFRSYM    DATA     BIT       P0_B3
      000000C0H   SFRSYM    DATA     BYTE      SMB0CN0
      00000090H.3 SFRSYM    DATA     BIT       P1_B3
      00000080H.4 SFRSYM    DATA     BIT       P0_B4
      00000090H.4 SFRSYM    DATA     BIT       P1_B4
      00000080H.5 SFRSYM    DATA     BIT       P0_B5
LX51 LINKER/LOCATER V4.66.30.0                                                        11/13/2019  15:40:31  PAGE 49


      000000EDH   SFRSYM    DATA     BYTE      CS0DL
      00000090H.5 SFRSYM    DATA     BIT       P1_B5
      00000080H.6 SFRSYM    DATA     BIT       P0_B6
      00000090H.6 SFRSYM    DATA     BIT       P1_B6
      00000080H.7 SFRSYM    DATA     BIT       P0_B7
      00000090H.7 SFRSYM    DATA     BIT       P1_B7
      000000A0H.7 SFRSYM    DATA     BIT       P2_B7
      00000083H   SFRSYM    DATA     BYTE      DPH
      000000C4H   SFRSYM    DATA     BYTE      ADC0GTH
      000000C8H.7 SFRSYM    DATA     BIT       TMR2CN0_TF2H
      000000C8H.3 SFRSYM    DATA     BIT       TMR2CN0_T2SPLIT
      000000D0H.6 SFRSYM    DATA     BIT       PSW_AC
      000000F8H   SFRSYM    DATA     BYTE      SPI0CN0
      000000B3H   SFRSYM    DATA     BYTE      HFO0CAL
      000000DEH   SFRSYM    DATA     BYTE      CS0SE
      00000088H.5 SFRSYM    DATA     BIT       TCON_TF0
      00000098H   SFRSYM    DATA     BIT       SCON0_RI
      00000082H   SFRSYM    DATA     BYTE      DPL
      00000088H.7 SFRSYM    DATA     BIT       TCON_TF1
      00000099H   SFRSYM    DATA     BYTE      SBUF0
      00000087H   SFRSYM    DATA     BYTE      PCON0
      000000B9H   SFRSYM    DATA     BYTE      IREF0CF
      000000C3H   SFRSYM    DATA     BYTE      ADC0GTL
      000000C8H.6 SFRSYM    DATA     BIT       TMR2CN0_TF2L
      00000098H.1 SFRSYM    DATA     BIT       SCON0_TI
      000000E8H   SFRSYM    DATA     BIT       ADC0CN0_ADCM0
      000000C6H   SFRSYM    DATA     BYTE      ADC0LTH
      00000088H   SFRSYM    DATA     BIT       TCON_IT0
      000000B0H.1 SFRSYM    DATA     BIT       CS0CN0_CSPME
      000000E8H.1 SFRSYM    DATA     BIT       ADC0CN0_ADCM1
      000000EFH   SFRSYM    DATA     BYTE      RSTSRC
      000000D7H   SFRSYM    DATA     BYTE      P0MAT
      00000086H   SFRSYM    DATA     BYTE      CRC0DAT
      00000088H.2 SFRSYM    DATA     BIT       TCON_IT1
      000000E8H.2 SFRSYM    DATA     BIT       ADC0CN0_ADCM2
      00000098H   SFRSYM    DATA     BYTE      SCON0
      000000CFH   SFRSYM    DATA     BYTE      P1MAT
      000000DEH   SFRSYM    DATA     BYTE      CS0PM
      000000E8H.3 SFRSYM    DATA     BIT       ADC0CN0_ADWINT
      000000E8H.4 SFRSYM    DATA     BIT       ADC0CN0_ADBUSY
      000000F5H   SFRSYM    DATA     BYTE      SMB0ADM
      000000C5H   SFRSYM    DATA     BYTE      ADC0LTL
      000000F8H.5 SFRSYM    DATA     BIT       SPI0CN0_MODF
      000000B8H.6 SFRSYM    DATA     BIT       IP_PSPI0
      000000B0H.6 SFRSYM    DATA     BIT       CS0CN0_CSEOS
      000000C8H   SFRSYM    DATA     BYTE      TMR2CN0
      00000091H   SFRSYM    DATA     BYTE      TMR3CN0
      000000F4H   SFRSYM    DATA     BYTE      SMB0ADR
      00000088H.4 SFRSYM    DATA     BIT       TCON_TR0
      000000B0H.5 SFRSYM    DATA     BIT       CS0CN0_CSINT
      000000ABH   SFRSYM    DATA     BYTE      CS0MX
      000000C8H.4 SFRSYM    DATA     BIT       TMR2CN0_TF2CEN
      00000088H.6 SFRSYM    DATA     BIT       TCON_TR1
      000000C2H   SFRSYM    DATA     BYTE      SMB0DAT
      00000099H   SFRSYM    DATA     BYTE      P0DRV
      000000DDH   SFRSYM    DATA     BYTE      CS0SS
      000000CDH   SFRSYM    DATA     BYTE      TMR2H
      000000A1H   SFRSYM    DATA     BYTE      SPI0CFG
      0000009BH   SFRSYM    DATA     BYTE      P1DRV
      00000095H   SFRSYM    DATA     BYTE      TMR3H
      0000009DH   SFRSYM    DATA     BYTE      P2DRV
      0000009AH   SFRSYM    DATA     BYTE      CRC0CNT
LX51 LINKER/LOCATER V4.66.30.0                                                        11/13/2019  15:40:31  PAGE 50


      000000CCH   SFRSYM    DATA     BYTE      TMR2L
      000000ACH   SFRSYM    DATA     BYTE      RTC0ADR
      000000F8H.7 SFRSYM    DATA     BIT       SPI0CN0_SPIF
      00000094H   SFRSYM    DATA     BYTE      TMR3L
      000000BBH   SFRSYM    DATA     BYTE      ADC0PWR
      000000A8H.7 SFRSYM    DATA     BIT       IE_EA
      000000ADH   SFRSYM    DATA     BYTE      RTC0DAT
      000000B0H.3 SFRSYM    DATA     BIT       CS0CN0_CSCMPEN
      000000B6H   SFRSYM    DATA     BYTE      FLSCL
      000000C8H.5 SFRSYM    DATA     BIT       TMR2CN0_TF2LEN
      000000F8H.6 SFRSYM    DATA     BIT       SPI0CN0_WCOL
      000000F8H.2 SFRSYM    DATA     BIT       SPI0CN0_NSSMD0
      000000D0H.7 SFRSYM    DATA     BIT       PSW_CY
      000000A3H   SFRSYM    DATA     BYTE      SPI0DAT
      000000F8H.3 SFRSYM    DATA     BIT       SPI0CN0_NSSMD1
      000000BDH   SFRSYM    DATA     WORD      ADC0
      0000008EH   SFRSYM    DATA     BYTE      TOFFH
      000000D0H   SFRSYM    DATA     BYTE      PSW
      000000DFH   SFRSYM    DATA     BYTE      PCA0PWM
      000000E2H   SFRSYM    DATA     BYTE      REVID
      0000008DH   SFRSYM    DATA     BYTE      TOFFL
      000000B7H   SFRSYM    DATA     BYTE      FLKEY
      000000BAH   SFRSYM    DATA     BYTE      ADC0AC

      ---         MODULE    ---      ---       ?C_INIT
      01001166H   PUBLIC    CODE     ---       ?C_START

      ---         MODULE    ---      ---       ?C?COPY
      0100052FH   PUBLIC    CODE     ---       ?C?COPY

      ---         MODULE    ---      ---       ?C?CLDPTR
      01000555H   PUBLIC    CODE     ---       ?C?CLDPTR

      ---         MODULE    ---      ---       ?C?CLDOPTR
      0100056EH   PUBLIC    CODE     ---       ?C?CLDOPTR

      ---         MODULE    ---      ---       ?C?CSTPTR
      0100059BH   PUBLIC    CODE     ---       ?C?CSTPTR

      ---         MODULE    ---      ---       ?C?CSTOPTR
      010005ADH   PUBLIC    CODE     ---       ?C?CSTOPTR

      ---         MODULE    ---      ---       ?C?IMUL
      010005CFH   PUBLIC    CODE     ---       ?C?IMUL

      ---         MODULE    ---      ---       ?C?SIDIV
      010005E1H   PUBLIC    CODE     ---       ?C?SIDIV

      ---         MODULE    ---      ---       ?C?LMUL
      01000617H   PUBLIC    CODE     ---       ?C?LMUL

      ---         MODULE    ---      ---       ?C?SLDIV
      0100122DH   PUBLIC    CODE     ---       ?C?SLDIV

      ---         MODULE    ---      ---       ?C?SLCMP
      01000666H   PUBLIC    CODE     ---       ?C?SLCMP

      ---         MODULE    ---      ---       ?C?SLSHR
      0100067CH   PUBLIC    CODE     ---       ?C?SLSHR

      ---         MODULE    ---      ---       ?C?CCASE
      01000690H   PUBLIC    CODE     ---       ?C?CCASE
LX51 LINKER/LOCATER V4.66.30.0                                                        11/13/2019  15:40:31  PAGE 51



      ---         MODULE    ---      ---       ?C?UIDIV
      010006B6H   PUBLIC    CODE     ---       ?C?UIDIV

      ---         MODULE    ---      ---       ?C?ULDIV
      01000747H   PUBLIC    CODE     ---       ?C?ULDIV

Program Size: data=128.0 xdata=1 const=0 code=5475
LX51 RUN COMPLETE.  0 WARNING(S),  0 ERROR(S)
