LX51 LINKER/LOCATER V4.66.30.0                                                          03/07/2020  14:55:04  PAGE 1


LX51 LINKER/LOCATER V4.66.30.0, INVOKED BY:
D:\SIMPLICITYSTDIO\DEVELOPER\TOOLCHAINS\KEIL_8051\9.53\BIN\LX51.EXE ./src/EFM8SB1_SleepMode_PortMatchWake.OBJ, ./src/Ini
>> tDevice.OBJ, ./src/Interrupts.OBJ, ./src/SILABS_STARTUP.OBJ, ./src/SmaRTClock.OBJ, ./src/power.OBJ TO REDTEMP.OMF.CRB
>> UILD REMOVEUNUSED PRINT (.\redtemp.m51) PAGEWIDTH (120) PAGELENGTH (65) CLASSES (CODE (C:0X0-C:0X1FFE), CONST (C:0X0-
>> C:0X1FFE), ECODE (C:0X0-C:0X1FFE), HCONST (C:0X0-C:0X1FFE), XDATA (X:0X0-X:0XFF), HDATA (X:0X0-X:0XFF))


CPU MODE:     8051 MODE
MEMORY MODEL: SMALL WITH FLOATING POINT ARITHMETIC


INPUT MODULES INCLUDED:
  ./src/EFM8SB1_SleepMode_PortMatchWake.OBJ (EFM8SB1_SLEEPMODE_PORTMATCHWAKE)
         COMMENT TYPE 0: C51 V9.53.0.0
  ./src/InitDevice.OBJ (INITDEVICE)
         COMMENT TYPE 0: C51 V9.53.0.0
  ./src/Interrupts.OBJ (INTERRUPTS)
         COMMENT TYPE 0: C51 V9.53.0.0
  ./src/SILABS_STARTUP.OBJ (?C_STARTUP)
         COMMENT TYPE 0: AX51 V3.12.0.0
  ./src/SmaRTClock.OBJ (SMARTCLOCK)
         COMMENT TYPE 0: C51 V9.53.0.0
  ./src/power.OBJ (POWER)
         COMMENT TYPE 0: C51 V9.53.0.0
  D:\SIMPLICITYSTDIO\DEVELOPER\TOOLCHAINS\KEIL_8051\9.53\LIB\C51FPS.LIB (?C?FPADD)
         COMMENT TYPE 1: A51 / ASM51 Assembler
  D:\SIMPLICITYSTDIO\DEVELOPER\TOOLCHAINS\KEIL_8051\9.53\LIB\C51FPS.LIB (?C?FPMUL)
         COMMENT TYPE 1: A51 / ASM51 Assembler
  D:\SIMPLICITYSTDIO\DEVELOPER\TOOLCHAINS\KEIL_8051\9.53\LIB\C51FPS.LIB (?C?FCAST)
         COMMENT TYPE 1: A51 / ASM51 Assembler
  D:\SIMPLICITYSTDIO\DEVELOPER\TOOLCHAINS\KEIL_8051\9.53\LIB\C51FPS.LIB (?C?CASTF)
         COMMENT TYPE 1: A51 / ASM51 Assembler
  D:\SIMPLICITYSTDIO\DEVELOPER\TOOLCHAINS\KEIL_8051\9.53\LIB\C51FPS.LIB (?C?FPGETOPN)
         COMMENT TYPE 1: A51 / ASM51 Assembler
  D:\SIMPLICITYSTDIO\DEVELOPER\TOOLCHAINS\KEIL_8051\9.53\LIB\C51S.LIB (?C?COPY)
         COMMENT TYPE 1: A51 / ASM51 Assembler
  D:\SIMPLICITYSTDIO\DEVELOPER\TOOLCHAINS\KEIL_8051\9.53\LIB\C51S.LIB (?C?CLDPTR)
         COMMENT TYPE 1: A51 / ASM51 Assembler
  D:\SIMPLICITYSTDIO\DEVELOPER\TOOLCHAINS\KEIL_8051\9.53\LIB\C51S.LIB (?C?CLDOPTR)
         COMMENT TYPE 1: A51 / ASM51 Assembler
  D:\SIMPLICITYSTDIO\DEVELOPER\TOOLCHAINS\KEIL_8051\9.53\LIB\C51S.LIB (?C?CSTPTR)
         COMMENT TYPE 1: A51 / ASM51 Assembler
  D:\SIMPLICITYSTDIO\DEVELOPER\TOOLCHAINS\KEIL_8051\9.53\LIB\C51S.LIB (?C?CSTOPTR)
         COMMENT TYPE 1: A51 / ASM51 Assembler
  D:\SIMPLICITYSTDIO\DEVELOPER\TOOLCHAINS\KEIL_8051\9.53\LIB\C51S.LIB (?C?IMUL)
         COMMENT TYPE 1: A51 / ASM51 Assembler
  D:\SIMPLICITYSTDIO\DEVELOPER\TOOLCHAINS\KEIL_8051\9.53\LIB\C51S.LIB (?C?UIDIV)
         COMMENT TYPE 1: A51 / ASM51 Assembler
  D:\SIMPLICITYSTDIO\DEVELOPER\TOOLCHAINS\KEIL_8051\9.53\LIB\C51S.LIB (?C?LNEG)
         COMMENT TYPE 1: A51 / ASM51 Assembler
  D:\SIMPLICITYSTDIO\DEVELOPER\TOOLCHAINS\KEIL_8051\9.53\LIB\C51S.LIB (?C?SLCMP)
         COMMENT TYPE 1: A51 / ASM51 Assembler
  D:\SIMPLICITYSTDIO\DEVELOPER\TOOLCHAINS\KEIL_8051\9.53\LIB\C51S.LIB (?C?CCASE)
         COMMENT TYPE 1: A51 / ASM51 Assembler


ACTIVE MEMORY CLASSES OF MODULE:  REDTEMP.OMF.CRBUILD (EFM8SB1_SLEEPMODE_PORTMATCHWAKE)

BASE        START       END         USED      MEMORY CLASS
==========================================================
C:000000H   C:000000H   C:001FFEH   000CBAH   CODE
C:000000H   C:000000H   C:001FFEH             CONST
C:000000H   C:000000H   C:001FFEH             ECODE
LX51 LINKER/LOCATER V4.66.30.0                                                        03/07/2020  14:55:04  PAGE 2


B00:0000H   C:000000H   C:001FFEH             HCONST
X:000000H   X:000000H   X:0000FFH   000001H   XDATA
X:000000H   X:000000H   X:0000FFH             HDATA
I:000000H   I:000000H   I:00007FH   000047H   DATA
I:000000H   I:000000H   I:0000FFH   000001H   IDATA


MEMORY MAP OF MODULE:  REDTEMP.OMF.CRBUILD (EFM8SB1_SLEEPMODE_PORTMATCHWAKE)


START     STOP      LENGTH    ALIGN  RELOC    MEMORY CLASS   SEGMENT NAME
=========================================================================

* * * * * * * * * * *   D A T A   M E M O R Y   * * * * * * * * * * * * *
000000H   000007H   000008H   ---    AT..     DATA           "REG BANK 0"
000008H   000041H   00003AH   BYTE   UNIT     DATA           _DATA_GROUP_
000042H   000045H   000004H   BYTE   UNIT     DATA           ?DT?INTERRUPTS
000046H   000046H   000001H   BYTE   UNIT     DATA           ?DT?SMARTCLOCK
000047H   000047H   000001H   BYTE   UNIT     IDATA          ?STACK

* * * * * * * * * * *   C O D E   M E M O R Y   * * * * * * * * * * * * *
000000H   000002H   000003H   ---    OFFS..   CODE           ?CO?SILABS_STARTUP?3
000003H   000026H   000024H   BYTE   UNIT     CODE           ?PR?_SMBUS_SENDBYTE?EFM8SB1_SLEEPMODE_PORTMATCHWAKE
000027H   00002AH   000004H   BYTE   UNIT     CODE           ?PR?VREG_0_ENTER_DEFAULTMODE_FROM_RESET?INITDEVICE
00002BH   00002DH   000003H   BYTE   OFFS..   CODE           ?INTERRUPTS?0002B
00002EH   00004FH   000022H   BYTE   UNIT     CODE           ?PR?_MSLEEP?EFM8SB1_SLEEPMODE_PORTMATCHWAKE
000050H   000050H   000001H   BYTE   UNIT     CODE           ?PR?FLASH_0_ENTER_DEFAULTMODE_FROM_RESET?INITDEVICE
000051H   000052H   000002H   ---    ---      **GAP**
000053H   000055H   000003H   BYTE   OFFS..   CODE           ?INTERRUPTS?00053
000056H   000533H   0004DEH   BYTE   UNIT     CODE           ?C?LIB_CODE
000534H   000661H   00012EH   BYTE   UNIT     CODE           ?PR?_SMBUS_READMEMORY?EFM8SB1_SLEEPMODE_PORTMATCHWAKE
000662H   000758H   0000F7H   BYTE   UNIT     CODE           ?PR?_TIMER_SLEEPUS_SELECT?INTERRUPTS
000759H   000842H   0000EAH   BYTE   UNIT     CODE           ?PR?_PEC_CALCULATION?EFM8SB1_SLEEPMODE_PORTMATCHWAKE
000843H   0008FBH   0000B9H   BYTE   UNIT     CODE           ?PR?_SMBUS_DELAY?EFM8SB1_SLEEPMODE_PORTMATCHWAKE
0008FCH   0009A2H   0000A7H   BYTE   UNIT     CODE           ?PR?_INT_TO_STRING?EFM8SB1_SLEEPMODE_PORTMATCHWAKE
0009A3H   000A05H   000063H   BYTE   UNIT     CODE           ?PR?MAIN?EFM8SB1_SLEEPMODE_PORTMATCHWAKE
000A06H   000A48H   000043H   BYTE   UNIT     CODE           ?PR?SMBUS_READTEMP?EFM8SB1_SLEEPMODE_PORTMATCHWAKE
000A49H   000A85H   00003DH   BYTE   UNIT     CODE           ?CO?INTERRUPTS
000A86H   000AB9H   000034H   BYTE   UNIT     CODE           ?CO?EFM8SB1_SLEEPMODE_PORTMATCHWAKE
000ABAH   000AEDH   000034H   BYTE   UNIT     CODE           ?PR?ENTER_DEFAULTMODE_FROM_RESET?INITDEVICE
000AEEH   000B1CH   00002FH   BYTE   UNIT     CODE           ?PR?ADC0EOC_ISR?INTERRUPTS
000B1DH   000B4AH   00002EH   BYTE   UNIT     CODE           ?PR?_UART_SEND?INITDEVICE
000B4BH   000B74H   00002AH   BYTE   UNIT     CODE           ?PR?_SMBUS_RECEIVEBYTE?EFM8SB1_SLEEPMODE_PORTMATCHWAKE
000B75H   000B96H   000022H   BYTE   UNIT     CODE           ?PR?SMBUS_RECEIVEBIT?EFM8SB1_SLEEPMODE_PORTMATCHWAKE
000B97H   000BB6H   000020H   BYTE   UNIT     CODE           ?PR?_USLEEP?EFM8SB1_SLEEPMODE_PORTMATCHWAKE
000BB7H   000BD6H   000020H   BYTE   UNIT     CODE           ?PR?SMBUS_STARTBIT?EFM8SB1_SLEEPMODE_PORTMATCHWAKE
000BD7H   000BEFH   000019H   BYTE   UNIT     CODE           ?PR?_SMBUS_SENDBIT?EFM8SB1_SLEEPMODE_PORTMATCHWAKE
000BF0H   000C08H   000019H   BYTE   UNIT     CODE           ?PR?TIMER16_2_ENTER_DEFAULTMODE_FROM_RESET?INITDEVICE
000C09H   000C20H   000018H   BYTE   UNIT     CODE           ?PR?SMBUS_STOPBIT?EFM8SB1_SLEEPMODE_PORTMATCHWAKE
000C21H   000C37H   000017H   BYTE   UNIT     CODE           ?PR?TIMER2_ISR?INTERRUPTS
000C38H   000C4CH   000015H   BYTE   UNIT     CODE           ?PR?ADC_0_ENTER_DEFAULTMODE_FROM_RESET?INITDEVICE
000C4DH   000C5AH   00000EH   BYTE   UNIT     CODE           ?PR?TIMER01_0_ENTER_DEFAULTMODE_FROM_RESET?INITDEVICE
000C5BH   000C67H   00000DH   BYTE   UNIT     CODE           ?PR?PORTS_0_ENTER_DEFAULTMODE_FROM_RESET?INITDEVICE
000C68H   000C74H   00000DH   BYTE   UNIT     CODE           ?PR?PORTS_1_ENTER_DEFAULTMODE_FROM_RESET?INITDEVICE
000C75H   000C80H   00000CH   BYTE   UNIT     CODE           ?C_C51STARTUP
000C81H   000C8AH   00000AH   BYTE   UNIT     CODE           ?PR?TIMER_SETUP_0_ENTER_DEFAULTMODE_FROM_RESET?INITDEVICE
000C8BH   000C93H   000009H   BYTE   UNIT     CODE           ?PR?PCA_0_ENTER_DEFAULTMODE_FROM_RESET?INITDEVICE
000C94H   000C9CH   000009H   BYTE   UNIT     CODE           ?PR?HFOSC_0_ENTER_DEFAULTMODE_FROM_RESET?INITDEVICE
000C9DH   000CA5H   000009H   BYTE   UNIT     CODE           ?PR?CLOCK_0_ENTER_DEFAULTMODE_FROM_RESET?INITDEVICE
000CA6H   000CACH   000007H   BYTE   UNIT     CODE           ?PR?PBCFG_0_ENTER_DEFAULTMODE_FROM_RESET?INITDEVICE
000CADH   000CB3H   000007H   BYTE   UNIT     CODE           ?PR?INTERRUPT_0_ENTER_DEFAULTMODE_FROM_RESET?INITDEVICE
000CB4H   000CB7H   000004H   BYTE   UNIT     CODE           ?PR?RSTSRC_0_ENTER_DEFAULTMODE_FROM_RESET?INITDEVICE
LX51 LINKER/LOCATER V4.66.30.0                                                        03/07/2020  14:55:04  PAGE 3


000CB8H   000CBBH   000004H   BYTE   UNIT     CODE           ?PR?UART_0_ENTER_DEFAULTMODE_FROM_RESET?INITDEVICE

* * * * * * * * * * *  X D A T A   M E M O R Y  * * * * * * * * * * * * *
000000H   000000H   000001H   BYTE   OFFS..   XDATA          ?XD?EFM8SB1_SLEEPMODE_PORTMATCHWAKE?0

* * * * * * * * *   R E M O V E D     S E G M E N T S   * * * * * * * *
   *DEL*:           000005H   BYTE   UNIT     CODE           ?PR?MLX96015_CONFIGURATION?EFM8SB1_SLEEPMODE_PORTMATCHWAKE
   *DEL*:           000004H   BYTE   UNIT     CODE           ?PR?UART_0_ENTER_DEFAULTMODE_TO_NORMAL?INITDEVICE
   *DEL*:           000004H   BYTE   UNIT     CODE           ?PR?UART_0_ENTER_DEFAULTMODE_TO_UART?INITDEVICE
   *DEL*:           000028H   BYTE   UNIT     CODE           ?PR?_UART_RECEIVE?INITDEVICE
   *DEL*:           000003H   BYTE   UNIT     DATA           ?DT?_UART_RECEIVE?INITDEVICE
   *DEL*:           000063H   BYTE   UNIT     CODE           ?PR?_UART_RECEIVE_TIMEOUT?INITDEVICE
   *DEL*:           00000CH   BYTE   UNIT     DATA           ?DT?_UART_RECEIVE_TIMEOUT?INITDEVICE
   *DEL*:           000112H   BYTE   UNIT     CODE           ?PR?_UART_RECEIVE_HAVE_TIMEOUT?INITDEVICE
   *DEL*:           000015H   BYTE   UNIT     DATA           ?DT?_UART_RECEIVE_HAVE_TIMEOUT?INITDEVICE
   *DEL*:           000077H   BYTE   UNIT     CODE           ?PR?UART_RECEIVE_NO_TIMEOUT?INITDEVICE
   *DEL*:           00000DH   BYTE   UNIT     DATA           ?DT?UART_RECEIVE_NO_TIMEOUT?INITDEVICE
   *DEL*:           000008H   BYTE   UNIT     CONST          ?CO?INITDEVICE
   *DEL*:           000082H   BYTE   UNIT     CODE           ?PR?_SET_TIMER2?INTERRUPTS
   *DEL*:           000003H   BYTE   UNIT     DATA           ?DT?_SET_TIMER2?INTERRUPTS
   *DEL*:           00000AH   BYTE   UNIT     CODE           ?PR?STOP_TIMER2?INTERRUPTS
   *DEL*:           000001H   BYTE   UNIT     DATA           ?DT?STOP_TIMER2?INTERRUPTS
   *DEL*:           00000BH   BYTE   UNIT     CODE           ?PR?_RTC_READ?SMARTCLOCK
   *DEL*:           000008H   BYTE   UNIT     CODE           ?PR?_RTC_WRITE?SMARTCLOCK
   *DEL*:           00002CH   BYTE   UNIT     CODE           ?PR?_RTC_WRITEALARM?SMARTCLOCK
   *DEL*:           000004H   BYTE   UNIT     DATA           ?DT?_RTC_WRITEALARM?SMARTCLOCK
   *DEL*:           000034H   BYTE   UNIT     CODE           ?PR?RTC_GETCURRENTTIME?SMARTCLOCK
   *DEL*:           000004H   BYTE   UNIT     DATA           ?DT?RTC_GETCURRENTTIME?SMARTCLOCK
   *DEL*:           00002FH   BYTE   UNIT     CODE           ?PR?_RTC_SETCURRENTTIME?SMARTCLOCK
   *DEL*:           000004H   BYTE   UNIT     DATA           ?DT?_RTC_SETCURRENTTIME?SMARTCLOCK
   *DEL*:           00000EH   BYTE   UNIT     CODE           ?PR?_RTC0CN0_SETBITS?SMARTCLOCK
   *DEL*:           00000AH   BYTE   UNIT     CODE           ?PR?_RTC0CN0_CLEARBITS?SMARTCLOCK



OVERLAY MAP OF MODULE:   REDTEMP.OMF.CRBUILD (EFM8SB1_SLEEPMODE_PORTMATCHWAKE)


FUNCTION/MODULE                                BIT_GROUP   DATA_GROUP 
--> CALLED FUNCTION/MODULE                    START  STOP  START  STOP
======================================================================
ADC0EOC_ISR/INTERRUPTS                        ----- -----  0008H 000BH

*** NEW ROOT ********************************

TIMER2_ISR/INTERRUPTS                         ----- -----  ----- -----

*** NEW ROOT ********************************

?C_C51STARTUP                                 ----- -----  ----- -----
  +--> MAIN/EFM8SB1_SLEEPMODE_PORTMATCHWAKE

MAIN/EFM8SB1_SLEEPMODE_PORTMATCHWAKE          ----- -----  000CH 0017H
  +--> ?CO?EFM8SB1_SLEEPMODE_PORTMATCHWAKE
  +--> ENTER_DEFAULTMODE_FROM_RESET/INITDEVICE
  +--> SMBUS_READTEMP/EFM8SB1_SLEEPMODE_PORTMATCHWAKE
  +--> _INT_TO_STRING/EFM8SB1_SLEEPMODE_PORTMATCHWAKE
  +--> _UART_SEND/INITDEVICE
  +--> _MSLEEP/EFM8SB1_SLEEPMODE_PORTMATCHWAKE

?CO?EFM8SB1_SLEEPMODE_PORTMATCHWAKE           ----- -----  ----- -----

LX51 LINKER/LOCATER V4.66.30.0                                                        03/07/2020  14:55:04  PAGE 4


ENTER_DEFAULTMODE_FROM_RESET/INITDEVICE       ----- -----  0018H 0018H
  +--> PCA_0_ENTER_DEFAULTMODE_FROM_RESET/INITDEVICE
  +--> VREG_0_ENTER_DEFAULTMODE_FROM_RESET/INITDEVICE
  +--> PORTS_0_ENTER_DEFAULTMODE_FROM_RESET/INITDEVICE
  +--> PORTS_1_ENTER_DEFAULTMODE_FROM_RESET/INITDEVICE
  +--> PBCFG_0_ENTER_DEFAULTMODE_FROM_RESET/INITDEVICE
  +--> RSTSRC_0_ENTER_DEFAULTMODE_FROM_RESET/INITDEVICE
  +--> HFOSC_0_ENTER_DEFAULTMODE_FROM_RESET/INITDEVICE
  +--> CLOCK_0_ENTER_DEFAULTMODE_FROM_RESET/INITDEVICE
  +--> FLASH_0_ENTER_DEFAULTMODE_FROM_RESET/INITDEVICE
  +--> TIMER01_0_ENTER_DEFAULTMODE_FROM_RESET/INITDEVICE
  +--> TIMER16_2_ENTER_DEFAULTMODE_FROM_RESET/INITDEVICE
  +--> TIMER_SETUP_0_ENTER_DEFAULTMODE_FROM_RESET/INITDEVICE
  +--> ADC_0_ENTER_DEFAULTMODE_FROM_RESET/INITDEVICE
  +--> UART_0_ENTER_DEFAULTMODE_FROM_RESET/INITDEVICE
  +--> INTERRUPT_0_ENTER_DEFAULTMODE_FROM_RESET/INITDEVICE

PCA_0_ENTER_DEFAULTMODE_FROM_RESET/INITD+     ----- -----  ----- -----
... EVICE

VREG_0_ENTER_DEFAULTMODE_FROM_RESET/INIT+     ----- -----  ----- -----
... DEVICE

PORTS_0_ENTER_DEFAULTMODE_FROM_RESET/INI+     ----- -----  ----- -----
... TDEVICE

PORTS_1_ENTER_DEFAULTMODE_FROM_RESET/INI+     ----- -----  ----- -----
... TDEVICE

PBCFG_0_ENTER_DEFAULTMODE_FROM_RESET/INI+     ----- -----  ----- -----
... TDEVICE

RSTSRC_0_ENTER_DEFAULTMODE_FROM_RESET/IN+     ----- -----  ----- -----
... ITDEVICE

HFOSC_0_ENTER_DEFAULTMODE_FROM_RESET/INI+     ----- -----  ----- -----
... TDEVICE

CLOCK_0_ENTER_DEFAULTMODE_FROM_RESET/INI+     ----- -----  ----- -----
... TDEVICE

FLASH_0_ENTER_DEFAULTMODE_FROM_RESET/INI+     ----- -----  ----- -----
... TDEVICE

TIMER01_0_ENTER_DEFAULTMODE_FROM_RESET/I+     ----- -----  ----- -----
... NITDEVICE

TIMER16_2_ENTER_DEFAULTMODE_FROM_RESET/I+     ----- -----  ----- -----
... NITDEVICE

TIMER_SETUP_0_ENTER_DEFAULTMODE_FROM_RES+     ----- -----  ----- -----
... ET/INITDEVICE

ADC_0_ENTER_DEFAULTMODE_FROM_RESET/INITD+     ----- -----  ----- -----
... EVICE

UART_0_ENTER_DEFAULTMODE_FROM_RESET/INIT+     ----- -----  ----- -----
... DEVICE

INTERRUPT_0_ENTER_DEFAULTMODE_FROM_RESET+     ----- -----  ----- -----
... /INITDEVICE

LX51 LINKER/LOCATER V4.66.30.0                                                        03/07/2020  14:55:04  PAGE 5


SMBUS_READTEMP/EFM8SB1_SLEEPMODE_PORTMAT+     ----- -----  0018H 001BH
... CHWAKE
  +--> _SMBUS_READMEMORY/EFM8SB1_SLEEPMODE_PORTMATCHWAKE

_SMBUS_READMEMORY/EFM8SB1_SLEEPMODE_PORT+     ----- -----  001CH 0033H
... MATCHWAKE
  +--> ?CO?EFM8SB1_SLEEPMODE_PORTMATCHWAKE
  +--> SMBUS_STOPBIT/EFM8SB1_SLEEPMODE_PORTMATCHWAKE
  +--> SMBUS_STARTBIT/EFM8SB1_SLEEPMODE_PORTMATCHWAKE
  +--> _SMBUS_SENDBYTE/EFM8SB1_SLEEPMODE_PORTMATCHWAKE
  +--> _SMBUS_RECEIVEBYTE/EFM8SB1_SLEEPMODE_PORTMATCHWAKE
  +--> _PEC_CALCULATION/EFM8SB1_SLEEPMODE_PORTMATCHWAKE
  +--> _INT_TO_STRING/EFM8SB1_SLEEPMODE_PORTMATCHWAKE
  +--> _UART_SEND/INITDEVICE

SMBUS_STOPBIT/EFM8SB1_SLEEPMODE_PORTMATC+     ----- -----  ----- -----
... HWAKE
  +--> _SMBUS_DELAY/EFM8SB1_SLEEPMODE_PORTMATCHWAKE

_SMBUS_DELAY/EFM8SB1_SLEEPMODE_PORTMATCH+     ----- -----  0038H 0039H
... WAKE
  +--> _TIMER_SLEEPUS_SELECT/INTERRUPTS

_TIMER_SLEEPUS_SELECT/INTERRUPTS              ----- -----  003AH 003EH
  +--> ?CO?INTERRUPTS
  +--> _UART_SEND/INITDEVICE

?CO?INTERRUPTS                                ----- -----  ----- -----

_UART_SEND/INITDEVICE                         ----- -----  003FH 0041H

SMBUS_STARTBIT/EFM8SB1_SLEEPMODE_PORTMAT+     ----- -----  ----- -----
... CHWAKE
  +--> _SMBUS_DELAY/EFM8SB1_SLEEPMODE_PORTMATCHWAKE

_SMBUS_SENDBYTE/EFM8SB1_SLEEPMODE_PORTMA+     ----- -----  0034H 0036H
... TCHWAKE
  +--> _SMBUS_SENDBIT/EFM8SB1_SLEEPMODE_PORTMATCHWAKE
  +--> SMBUS_RECEIVEBIT/EFM8SB1_SLEEPMODE_PORTMATCHWAKE

_SMBUS_SENDBIT/EFM8SB1_SLEEPMODE_PORTMAT+     ----- -----  ----- -----
... CHWAKE
  +--> _SMBUS_DELAY/EFM8SB1_SLEEPMODE_PORTMATCHWAKE

SMBUS_RECEIVEBIT/EFM8SB1_SLEEPMODE_PORTM+     ----- -----  0037H 0037H
... ATCHWAKE
  +--> _SMBUS_DELAY/EFM8SB1_SLEEPMODE_PORTMATCHWAKE

_SMBUS_RECEIVEBYTE/EFM8SB1_SLEEPMODE_POR+     ----- -----  0034H 0036H
... TMATCHWAKE
  +--> SMBUS_RECEIVEBIT/EFM8SB1_SLEEPMODE_PORTMATCHWAKE
  +--> _SMBUS_SENDBIT/EFM8SB1_SLEEPMODE_PORTMATCHWAKE

_PEC_CALCULATION/EFM8SB1_SLEEPMODE_PORTM+     ----- -----  0034H 0041H
... ATCHWAKE

_INT_TO_STRING/EFM8SB1_SLEEPMODE_PORTMAT+     ----- -----  0034H 003CH
... CHWAKE

_MSLEEP/EFM8SB1_SLEEPMODE_PORTMATCHWAKE       ----- -----  0018H 0019H
  +--> _USLEEP/EFM8SB1_SLEEPMODE_PORTMATCHWAKE

LX51 LINKER/LOCATER V4.66.30.0                                                        03/07/2020  14:55:04  PAGE 6


_USLEEP/EFM8SB1_SLEEPMODE_PORTMATCHWAKE       ----- -----  001AH 001BH



PUBLIC SYMBOLS OF MODULE:  REDTEMP.OMF.CRBUILD (EFM8SB1_SLEEPMODE_PORTMATCHWAKE)


      VALUE       CLASS    TYPE      PUBLIC SYMBOL NAME
      =================================================
*DEL*:00000000H   DATA     BYTE      ?_uart_receive_timeout?BYTE
      01000292H   CODE     ---       ?C?CASTF
      0100050EH   CODE     ---       ?C?CCASE
      01000422H   CODE     ---       ?C?CLDOPTR
      01000409H   CODE     ---       ?C?CLDPTR
      00000000H   NUMBER   ---       ?C?CODESEG
      010003E3H   CODE     ---       ?C?COPY
      01000461H   CODE     ---       ?C?CSTOPTR
      0100044FH   CODE     ---       ?C?CSTPTR
      0100025EH   CODE     ---       ?C?FCASTC
      01000259H   CODE     ---       ?C?FCASTI
      01000254H   CODE     ---       ?C?FCASTL
      0100005DH   CODE     ---       ?C?FPADD
      010002C9H   CODE     ---       ?C?FPGETOPN2
      0100014EH   CODE     ---       ?C?FPMUL
      010002FEH   CODE     ---       ?C?FPNANRESULT
      01000308H   CODE     ---       ?C?FPOVERFLOW
      010002E0H   CODE     ---       ?C?FPRESULT
      010002F4H   CODE     ---       ?C?FPRESULT2
      01000059H   CODE     ---       ?C?FPSUB
      01000305H   CODE     ---       ?C?FPUNDERFLOW
      01000483H   CODE     ---       ?C?IMUL
      010004EAH   CODE     ---       ?C?LNEG
      010004F8H   CODE     ---       ?C?SLCMP
      01000495H   CODE     ---       ?C?UIDIV
      00000000H   NUMBER   ---       ?C?XDATASEG
      010009A3H   CODE     ---       ?C_START
      01000000H   CODE     NEAR LAB  ?C_STARTUP
      01000905H   CODE     ---       _int_to_string
      0100002EH   CODE     ---       _msleep
      01000759H   CODE     ---       _PEC_Calculation
*DEL*:00000000H   CODE     ---       _RTC0CN0_ClearBits
*DEL*:00000000H   CODE     ---       _RTC0CN0_SetBits
*DEL*:00000000H   CODE     ---       _RTC_Read
*DEL*:00000000H   CODE     ---       _RTC_SetCurrentTime
*DEL*:00000000H   CODE     ---       _RTC_Write
*DEL*:00000000H   CODE     ---       _RTC_WriteAlarm
*DEL*:00000000H   CODE     ---       _set_timer2
      01000849H   CODE     ---       _SMBus_Delay
      01000534H   CODE     ---       _SMBus_ReadMemory
      01000B4BH   CODE     ---       _SMBus_ReceiveByte
      01000BD7H   CODE     ---       _SMBus_SendBit
      01000003H   CODE     ---       _SMBus_SendByte
      01000662H   CODE     ---       _timer_sleepus_select
*DEL*:00000000H   CODE     ---       _uart_receive
*DEL*:00000000H   CODE     ---       _uart_receive_have_timeout
*DEL*:00000000H   CODE     ---       _uart_receive_timeout
      01000B23H   CODE     ---       _uart_send
      01000B97H   CODE     ---       _usleep
*SFR* 000000E0H   DATA     BYTE      ACC
*SFR* 000000E0H   DATA     BIT       ACC_ACC0
*SFR* 000000E0H.1 DATA     BIT       ACC_ACC1
*SFR* 000000E0H.2 DATA     BIT       ACC_ACC2
LX51 LINKER/LOCATER V4.66.30.0                                                        03/07/2020  14:55:04  PAGE 7


*SFR* 000000E0H.3 DATA     BIT       ACC_ACC3
*SFR* 000000E0H.4 DATA     BIT       ACC_ACC4
*SFR* 000000E0H.5 DATA     BIT       ACC_ACC5
*SFR* 000000E0H.6 DATA     BIT       ACC_ACC6
*SFR* 000000E0H.7 DATA     BIT       ACC_ACC7
*SFR* 000000BDH   DATA     WORD      ADC0
*SFR* 000000BAH   DATA     BYTE      ADC0AC
*SFR* 00000097H   DATA     BYTE      ADC0CF
*SFR* 000000E8H   DATA     BYTE      ADC0CN0
*SFR* 000000E8H.6 DATA     BIT       ADC0CN0_ADBMEN
*SFR* 000000E8H.4 DATA     BIT       ADC0CN0_ADBUSY
*SFR* 000000E8H   DATA     BIT       ADC0CN0_ADCM0
*SFR* 000000E8H.1 DATA     BIT       ADC0CN0_ADCM1
*SFR* 000000E8H.2 DATA     BIT       ADC0CN0_ADCM2
*SFR* 000000E8H.7 DATA     BIT       ADC0CN0_ADEN
*SFR* 000000E8H.5 DATA     BIT       ADC0CN0_ADINT
*SFR* 000000E8H.3 DATA     BIT       ADC0CN0_ADWINT
      01000AEEH   CODE     ---       ADC0EOC_ISR
*SFR* 000000C3H   DATA     WORD      ADC0GT
*SFR* 000000C4H   DATA     BYTE      ADC0GTH
*SFR* 000000C3H   DATA     BYTE      ADC0GTL
*SFR* 000000BEH   DATA     BYTE      ADC0H
*SFR* 000000BDH   DATA     BYTE      ADC0L
*SFR* 000000C5H   DATA     WORD      ADC0LT
*SFR* 000000C6H   DATA     BYTE      ADC0LTH
*SFR* 000000C5H   DATA     BYTE      ADC0LTL
*SFR* 00000096H   DATA     BYTE      ADC0MX
*SFR* 000000BBH   DATA     BYTE      ADC0PWR
*SFR* 000000BCH   DATA     BYTE      ADC0TK
      01000C38H   CODE     ---       ADC_0_enter_DefaultMode_from_RESET
*SFR* 000000F0H   DATA     BYTE      B
*SFR* 000000F0H   DATA     BIT       B_B0
*SFR* 000000F0H.1 DATA     BIT       B_B1
*SFR* 000000F0H.2 DATA     BIT       B_B2
*SFR* 000000F0H.3 DATA     BIT       B_B3
*SFR* 000000F0H.4 DATA     BIT       B_B4
*SFR* 000000F0H.5 DATA     BIT       B_B5
*SFR* 000000F0H.6 DATA     BIT       B_B6
*SFR* 000000F0H.7 DATA     BIT       B_B7
*SFR* 0000008EH   DATA     BYTE      CKCON0
*SFR* 000000A9H   DATA     BYTE      CLKSEL
      01000C9DH   CODE     ---       CLOCK_0_enter_DefaultMode_from_RESET
*SFR* 0000009BH   DATA     BYTE      CMP0CN0
*SFR* 0000009DH   DATA     BYTE      CMP0MD
*SFR* 0000009FH   DATA     BYTE      CMP0MX
      00000042H   DATA     WORD      count
      00000044H   DATA     INT       count_timer
*SFR* 0000009EH   DATA     BYTE      CRC0AUTO
*SFR* 00000084H   DATA     BYTE      CRC0CN0
*SFR* 0000009AH   DATA     BYTE      CRC0CNT
*SFR* 00000086H   DATA     BYTE      CRC0DAT
*SFR* 0000009CH   DATA     BYTE      CRC0FLIP
*SFR* 00000085H   DATA     BYTE      CRC0IN
*SFR* 000000AAH   DATA     BYTE      CS0CF
*SFR* 000000B0H   DATA     BYTE      CS0CN0
*SFR* 000000B0H.4 DATA     BIT       CS0CN0_CSBUSY
*SFR* 000000B0H.3 DATA     BIT       CS0CN0_CSCMPEN
*SFR* 000000B0H   DATA     BIT       CS0CN0_CSCMPF
*SFR* 000000B0H.7 DATA     BIT       CS0CN0_CSEN
*SFR* 000000B0H.6 DATA     BIT       CS0CN0_CSEOS
*SFR* 000000B0H.5 DATA     BIT       CS0CN0_CSINT
*SFR* 000000B0H.1 DATA     BIT       CS0CN0_CSPME
LX51 LINKER/LOCATER V4.66.30.0                                                        03/07/2020  14:55:04  PAGE 8


*SFR* 000000EEH   DATA     BYTE      CS0DH
*SFR* 000000EDH   DATA     BYTE      CS0DL
*SFR* 000000AFH   DATA     BYTE      CS0MD1
*SFR* 000000F3H   DATA     BYTE      CS0MD2
*SFR* 000000F3H   DATA     BYTE      CS0MD3
*SFR* 000000ABH   DATA     BYTE      CS0MX
*SFR* 000000DEH   DATA     BYTE      CS0PM
*SFR* 000000D2H   DATA     BYTE      CS0SCAN0
*SFR* 000000D3H   DATA     BYTE      CS0SCAN1
*SFR* 000000DEH   DATA     BYTE      CS0SE
*SFR* 000000DDH   DATA     BYTE      CS0SS
*SFR* 000000FEH   DATA     BYTE      CS0THH
*SFR* 000000FDH   DATA     BYTE      CS0THL
*SFR* 000000E3H   DATA     BYTE      DERIVID
*SFR* 00000082H   DATA     WORD      DP
*SFR* 00000083H   DATA     BYTE      DPH
*SFR* 00000082H   DATA     BYTE      DPL
*SFR* 000000E6H   DATA     BYTE      EIE1
*SFR* 000000E7H   DATA     BYTE      EIE2
*SFR* 000000F6H   DATA     BYTE      EIP1
*SFR* 000000F7H   DATA     BYTE      EIP2
      01000ABAH   CODE     ---       enter_DefaultMode_from_RESET
      01000050H   CODE     ---       FLASH_0_enter_DefaultMode_from_RESET
*SFR* 000000B7H   DATA     BYTE      FLKEY
*SFR* 000000B6H   DATA     BYTE      FLSCL
*SFR* 000000B3H   DATA     BYTE      HFO0CAL
*SFR* 000000B2H   DATA     BYTE      HFO0CN
      01000C94H   CODE     ---       HFOSC_0_enter_DefaultMode_from_RESET
*SFR* 000000A8H   DATA     BYTE      IE
*SFR* 000000A8H.7 DATA     BIT       IE_EA
*SFR* 000000A8H.4 DATA     BIT       IE_ES0
*SFR* 000000A8H.6 DATA     BIT       IE_ESPI0
*SFR* 000000A8H.1 DATA     BIT       IE_ET0
*SFR* 000000A8H.3 DATA     BIT       IE_ET1
*SFR* 000000A8H.5 DATA     BIT       IE_ET2
*SFR* 000000A8H   DATA     BIT       IE_EX0
*SFR* 000000A8H.2 DATA     BIT       IE_EX1
      01000CADH   CODE     ---       INTERRUPT_0_enter_DefaultMode_from_RESET
*SFR* 000000B8H   DATA     BYTE      IP
*SFR* 000000B8H.4 DATA     BIT       IP_PS0
*SFR* 000000B8H.6 DATA     BIT       IP_PSPI0
*SFR* 000000B8H.1 DATA     BIT       IP_PT0
*SFR* 000000B8H.3 DATA     BIT       IP_PT1
*SFR* 000000B8H.5 DATA     BIT       IP_PT2
*SFR* 000000B8H   DATA     BIT       IP_PX0
*SFR* 000000B8H.2 DATA     BIT       IP_PX1
*SFR* 000000B9H   DATA     BYTE      IREF0CF
*SFR* 000000D6H   DATA     BYTE      IREF0CN0
*SFR* 000000E4H   DATA     BYTE      IT01CF
      010009A3H   CODE     ---       main
*DEL*:00000000H   CODE     ---       Mlx96015_Configuration
*SFR* 00000080H   DATA     BYTE      P0
*SFR* 00000080H   DATA     BIT       P0_B0
*SFR* 00000080H.1 DATA     BIT       P0_B1
*SFR* 00000080H.2 DATA     BIT       P0_B2
*SFR* 00000080H.3 DATA     BIT       P0_B3
*SFR* 00000080H.4 DATA     BIT       P0_B4
*SFR* 00000080H.5 DATA     BIT       P0_B5
*SFR* 00000080H.6 DATA     BIT       P0_B6
*SFR* 00000080H.7 DATA     BIT       P0_B7
*SFR* 00000099H   DATA     BYTE      P0DRV
*SFR* 000000C7H   DATA     BYTE      P0MASK
LX51 LINKER/LOCATER V4.66.30.0                                                        03/07/2020  14:55:04  PAGE 9


*SFR* 000000D7H   DATA     BYTE      P0MAT
*SFR* 000000F1H   DATA     BYTE      P0MDIN
*SFR* 000000A4H   DATA     BYTE      P0MDOUT
*SFR* 000000D4H   DATA     BYTE      P0SKIP
*SFR* 00000090H   DATA     BYTE      P1
*SFR* 00000090H   DATA     BIT       P1_B0
*SFR* 00000090H.1 DATA     BIT       P1_B1
*SFR* 00000090H.2 DATA     BIT       P1_B2
*SFR* 00000090H.3 DATA     BIT       P1_B3
*SFR* 00000090H.4 DATA     BIT       P1_B4
*SFR* 00000090H.5 DATA     BIT       P1_B5
*SFR* 00000090H.6 DATA     BIT       P1_B6
*SFR* 00000090H.7 DATA     BIT       P1_B7
*SFR* 0000009BH   DATA     BYTE      P1DRV
*SFR* 000000BFH   DATA     BYTE      P1MASK
*SFR* 000000CFH   DATA     BYTE      P1MAT
*SFR* 000000F2H   DATA     BYTE      P1MDIN
*SFR* 000000A5H   DATA     BYTE      P1MDOUT
*SFR* 000000D5H   DATA     BYTE      P1SKIP
*SFR* 000000A0H   DATA     BYTE      P2
*SFR* 000000A0H.7 DATA     BIT       P2_B7
*SFR* 0000009DH   DATA     BYTE      P2DRV
*SFR* 000000A6H   DATA     BYTE      P2MDOUT
      01000CA6H   CODE     ---       PBCFG_0_enter_DefaultMode_from_RESET
*SFR* 000000F9H   DATA     WORD      PCA0
*SFR* 000000D8H   DATA     BYTE      PCA0CN0
*SFR* 000000D8H   DATA     BIT       PCA0CN0_CCF0
*SFR* 000000D8H.1 DATA     BIT       PCA0CN0_CCF1
*SFR* 000000D8H.2 DATA     BIT       PCA0CN0_CCF2
*SFR* 000000D8H.7 DATA     BIT       PCA0CN0_CF
*SFR* 000000D8H.6 DATA     BIT       PCA0CN0_CR
*SFR* 000000FBH   DATA     WORD      PCA0CP0
*SFR* 000000E9H   DATA     WORD      PCA0CP1
*SFR* 000000EBH   DATA     WORD      PCA0CP2
*SFR* 000000FCH   DATA     BYTE      PCA0CPH0
*SFR* 000000EAH   DATA     BYTE      PCA0CPH1
*SFR* 000000ECH   DATA     BYTE      PCA0CPH2
*SFR* 000000FBH   DATA     BYTE      PCA0CPL0
*SFR* 000000E9H   DATA     BYTE      PCA0CPL1
*SFR* 000000EBH   DATA     BYTE      PCA0CPL2
*SFR* 000000DAH   DATA     BYTE      PCA0CPM0
*SFR* 000000DBH   DATA     BYTE      PCA0CPM1
*SFR* 000000DCH   DATA     BYTE      PCA0CPM2
*SFR* 000000FAH   DATA     BYTE      PCA0H
*SFR* 000000F9H   DATA     BYTE      PCA0L
*SFR* 000000D9H   DATA     BYTE      PCA0MD
*SFR* 000000DFH   DATA     BYTE      PCA0PWM
      01000C8BH   CODE     ---       PCA_0_enter_DefaultMode_from_RESET
*SFR* 00000087H   DATA     BYTE      PCON0
*SFR* 000000B5H   DATA     BYTE      PMU0CF
*SFR* 000000CEH   DATA     BYTE      PMU0FL
*SFR* 000000B5H   DATA     BYTE      PMU0MD
      01000C5BH   CODE     ---       PORTS_0_enter_DefaultMode_from_RESET
      01000C68H   CODE     ---       PORTS_1_enter_DefaultMode_from_RESET
*SFR* 000000A0H   DATA     BYTE      PPAGE_SFR
*SFR* 0000008FH   DATA     BYTE      PSCTL
*SFR* 000000D0H   DATA     BYTE      PSW
*SFR* 000000D0H.6 DATA     BIT       PSW_AC
*SFR* 000000D0H.7 DATA     BIT       PSW_CY
*SFR* 000000D0H.5 DATA     BIT       PSW_F0
*SFR* 000000D0H.1 DATA     BIT       PSW_F1
*SFR* 000000D0H.2 DATA     BIT       PSW_OV
LX51 LINKER/LOCATER V4.66.30.0                                                        03/07/2020  14:55:04  PAGE 10


*SFR* 000000D0H   DATA     BIT       PSW_PARITY
*SFR* 000000D0H.3 DATA     BIT       PSW_RS0
*SFR* 000000D0H.4 DATA     BIT       PSW_RS1
*SFR* 000000D1H   DATA     BYTE      REF0CN
*SFR* 000000C9H   DATA     BYTE      REG0CN
      02000000H   XDATA    BYTE      reserved
*SFR* 000000E2H   DATA     BYTE      REVID
*SFR* 000000EFH   DATA     BYTE      RSTSRC
      01000CB4H   CODE     ---       RSTSRC_0_enter_DefaultMode_from_RESET
*SFR* 000000ACH   DATA     BYTE      RTC0ADR
      00000046H   DATA     BYTE      RTC0CN0_Local
*SFR* 000000ADH   DATA     BYTE      RTC0DAT
*SFR* 000000AEH   DATA     BYTE      RTC0KEY
*DEL*:00000000H   CODE     ---       RTC_GetCurrentTime
*SFR* 00000099H   DATA     BYTE      SBUF0
*SFR* 00000090H.6 DATA     BIT       SCL
*SFR* 00000098H   DATA     BYTE      SCON0
*SFR* 00000098H.5 DATA     BIT       SCON0_MCE
*SFR* 00000098H.2 DATA     BIT       SCON0_RB8
*SFR* 00000098H.4 DATA     BIT       SCON0_REN
*SFR* 00000098H   DATA     BIT       SCON0_RI
*SFR* 00000098H.7 DATA     BIT       SCON0_SMODE
*SFR* 00000098H.3 DATA     BIT       SCON0_TB8
*SFR* 00000098H.1 DATA     BIT       SCON0_TI
*SFR* 00000090H.7 DATA     BIT       SDA
*SFR* 000000A7H   DATA     BYTE      SFRPAGE
*SFR* 000000F5H   DATA     BYTE      SMB0ADM
*SFR* 000000F4H   DATA     BYTE      SMB0ADR
*SFR* 000000C1H   DATA     BYTE      SMB0CF
*SFR* 000000C0H   DATA     BYTE      SMB0CN0
*SFR* 000000C0H.1 DATA     BIT       SMB0CN0_ACK
*SFR* 000000C0H.3 DATA     BIT       SMB0CN0_ACKRQ
*SFR* 000000C0H.2 DATA     BIT       SMB0CN0_ARBLOST
*SFR* 000000C0H.7 DATA     BIT       SMB0CN0_MASTER
*SFR* 000000C0H   DATA     BIT       SMB0CN0_SI
*SFR* 000000C0H.5 DATA     BIT       SMB0CN0_STA
*SFR* 000000C0H.4 DATA     BIT       SMB0CN0_STO
*SFR* 000000C0H.6 DATA     BIT       SMB0CN0_TXMODE
*SFR* 000000C2H   DATA     BYTE      SMB0DAT
      01000A06H   CODE     ---       SMBus_ReadTemp
      01000B75H   CODE     ---       SMBus_ReceiveBit
      01000BB7H   CODE     ---       SMBus_StartBit
      01000C09H   CODE     ---       SMBus_StopBit
*SFR* 00000081H   DATA     BYTE      SP
*SFR* 000000A1H   DATA     BYTE      SPI0CFG
*SFR* 000000A2H   DATA     BYTE      SPI0CKR
*SFR* 000000F8H   DATA     BYTE      SPI0CN0
*SFR* 000000F8H.5 DATA     BIT       SPI0CN0_MODF
*SFR* 000000F8H.2 DATA     BIT       SPI0CN0_NSSMD0
*SFR* 000000F8H.3 DATA     BIT       SPI0CN0_NSSMD1
*SFR* 000000F8H.4 DATA     BIT       SPI0CN0_RXOVRN
*SFR* 000000F8H   DATA     BIT       SPI0CN0_SPIEN
*SFR* 000000F8H.7 DATA     BIT       SPI0CN0_SPIF
*SFR* 000000F8H.1 DATA     BIT       SPI0CN0_TXBMT
*SFR* 000000F8H.6 DATA     BIT       SPI0CN0_WCOL
*SFR* 000000A3H   DATA     BYTE      SPI0DAT
*DEL*:00000000H   CODE     ---       stop_timer2
*SFR* 00000088H   DATA     BYTE      TCON
*SFR* 00000088H.1 DATA     BIT       TCON_IE0
*SFR* 00000088H.3 DATA     BIT       TCON_IE1
*SFR* 00000088H   DATA     BIT       TCON_IT0
*SFR* 00000088H.2 DATA     BIT       TCON_IT1
LX51 LINKER/LOCATER V4.66.30.0                                                        03/07/2020  14:55:04  PAGE 11


*SFR* 00000088H.5 DATA     BIT       TCON_TF0
*SFR* 00000088H.7 DATA     BIT       TCON_TF1
*SFR* 00000088H.4 DATA     BIT       TCON_TR0
*SFR* 00000088H.6 DATA     BIT       TCON_TR1
*SFR* 0000008CH   DATA     BYTE      TH0
*SFR* 0000008DH   DATA     BYTE      TH1
      01000C4DH   CODE     ---       TIMER01_0_enter_DefaultMode_from_RESET
      01000BF0H   CODE     ---       TIMER16_2_enter_DefaultMode_from_RESET
      01000C21H   CODE     ---       TIMER2_ISR
      01000C81H   CODE     ---       TIMER_SETUP_0_enter_DefaultMode_from_RESET
*SFR* 0000008AH   DATA     BYTE      TL0
*SFR* 0000008BH   DATA     BYTE      TL1
*SFR* 00000089H   DATA     BYTE      TMOD
*SFR* 000000CCH   DATA     WORD      TMR2
*SFR* 000000C8H   DATA     BYTE      TMR2CN0
*SFR* 000000C8H.3 DATA     BIT       TMR2CN0_T2SPLIT
*SFR* 000000C8H   DATA     BIT       TMR2CN0_T2XCLK0
*SFR* 000000C8H.1 DATA     BIT       TMR2CN0_T2XCLK1
*SFR* 000000C8H.4 DATA     BIT       TMR2CN0_TF2CEN
*SFR* 000000C8H.7 DATA     BIT       TMR2CN0_TF2H
*SFR* 000000C8H.6 DATA     BIT       TMR2CN0_TF2L
*SFR* 000000C8H.5 DATA     BIT       TMR2CN0_TF2LEN
*SFR* 000000C8H.2 DATA     BIT       TMR2CN0_TR2
*SFR* 000000CDH   DATA     BYTE      TMR2H
*SFR* 000000CCH   DATA     BYTE      TMR2L
*SFR* 000000CAH   DATA     WORD      TMR2RL
*SFR* 000000CBH   DATA     BYTE      TMR2RLH
*SFR* 000000CAH   DATA     BYTE      TMR2RLL
*SFR* 00000094H   DATA     WORD      TMR3
*SFR* 00000091H   DATA     BYTE      TMR3CN0
*SFR* 00000095H   DATA     BYTE      TMR3H
*SFR* 00000094H   DATA     BYTE      TMR3L
*SFR* 00000092H   DATA     WORD      TMR3RL
*SFR* 00000093H   DATA     BYTE      TMR3RLH
*SFR* 00000092H   DATA     BYTE      TMR3RLL
*SFR* 0000008EH   DATA     BYTE      TOFFH
*SFR* 0000008DH   DATA     BYTE      TOFFL
      01000CB8H   CODE     ---       UART_0_enter_DefaultMode_from_RESET
*DEL*:00000000H   CODE     ---       UART_0_enter_DefaultMode_to_Normal
*DEL*:00000000H   CODE     ---       UART_0_enter_DefaultMode_to_Uart
*DEL*:00000000H   CODE     ---       uart_receive_no_timeout
*SFR* 00000080H.5 DATA     BIT       UART_RX
*SFR* 00000080H.4 DATA     BIT       UART_TX
*SFR* 000000FFH   DATA     BYTE      VDM0CN
      01000027H   CODE     ---       VREG_0_enter_DefaultMode_from_RESET
*SFR* 000000E1H   DATA     BYTE      XBR0
*SFR* 000000E2H   DATA     BYTE      XBR1
*SFR* 000000E3H   DATA     BYTE      XBR2
*SFR* 000000B1H   DATA     BYTE      XOSC0CN



SYMBOL TABLE OF MODULE:  REDTEMP.OMF.CRBUILD (EFM8SB1_SLEEPMODE_PORTMATCHWAKE)

      VALUE       REP       CLASS    TYPE      SYMBOL NAME
      ====================================================
      ---         MODULE    ---      ---       EFM8SB1_SLEEPMODE_PORTMATCHWAKE
      02000000H   PUBLIC    XDATA    BYTE      reserved
      010009A3H   PUBLIC    CODE     ---       main
      01000A06H   PUBLIC    CODE     ---       SMBus_ReadTemp
      01000534H   PUBLIC    CODE     ---       _SMBus_ReadMemory
      01000905H   PUBLIC    CODE     ---       _int_to_string
LX51 LINKER/LOCATER V4.66.30.0                                                        03/07/2020  14:55:04  PAGE 12


      01000759H   PUBLIC    CODE     ---       _PEC_Calculation
      01000B4BH   PUBLIC    CODE     ---       _SMBus_ReceiveByte
      01000003H   PUBLIC    CODE     ---       _SMBus_SendByte
      01000B75H   PUBLIC    CODE     ---       SMBus_ReceiveBit
      01000BD7H   PUBLIC    CODE     ---       _SMBus_SendBit
      01000C09H   PUBLIC    CODE     ---       SMBus_StopBit
      01000BB7H   PUBLIC    CODE     ---       SMBus_StartBit
      01000849H   PUBLIC    CODE     ---       _SMBus_Delay
      0100002EH   PUBLIC    CODE     ---       _msleep
      01000B97H   PUBLIC    CODE     ---       _usleep
      000000A2H   SFRSYM    DATA     BYTE      SPI0CKR
      00000080H   SFRSYM    DATA     BYTE      P0
      000000D0H.2 SFRSYM    DATA     BIT       PSW_OV
      000000B1H   SFRSYM    DATA     BYTE      XOSC0CN
      00000090H   SFRSYM    DATA     BYTE      P1
      000000A0H   SFRSYM    DATA     BYTE      P2
      00000097H   SFRSYM    DATA     BYTE      ADC0CF
      000000C0H.7 SFRSYM    DATA     BIT       SMB0CN0_MASTER
      000000F9H   SFRSYM    DATA     WORD      PCA0
      000000AEH   SFRSYM    DATA     BYTE      RTC0KEY
      000000E6H   SFRSYM    DATA     BYTE      EIE1
      000000C0H.1 SFRSYM    DATA     BIT       SMB0CN0_ACK
      000000E7H   SFRSYM    DATA     BYTE      EIE2
      0000008FH   SFRSYM    DATA     BYTE      PSCTL
      000000E4H   SFRSYM    DATA     BYTE      IT01CF
      000000B0H   SFRSYM    DATA     BYTE      CS0CN0
      000000C0H.6 SFRSYM    DATA     BIT       SMB0CN0_TXMODE
      000000E3H   SFRSYM    DATA     BYTE      DERIVID
      000000AFH   SFRSYM    DATA     BYTE      CS0MD1
      000000A7H   SFRSYM    DATA     BYTE      SFRPAGE
      000000F3H   SFRSYM    DATA     BYTE      CS0MD2
      000000A4H   SFRSYM    DATA     BYTE      P0MDOUT
      000000F3H   SFRSYM    DATA     BYTE      CS0MD3
      000000A5H   SFRSYM    DATA     BYTE      P1MDOUT
      000000E8H.5 SFRSYM    DATA     BIT       ADC0CN0_ADINT
      000000CBH   SFRSYM    DATA     BYTE      TMR2RLH
      000000A6H   SFRSYM    DATA     BYTE      P2MDOUT
      000000A8H   SFRSYM    DATA     BYTE      IE
      00000093H   SFRSYM    DATA     BYTE      TMR3RLH
      000000F6H   SFRSYM    DATA     BYTE      EIP1
      000000F7H   SFRSYM    DATA     BYTE      EIP2
      00000098H.2 SFRSYM    DATA     BIT       SCON0_RB8
      000000CAH   SFRSYM    DATA     BYTE      TMR2RLL
      000000FCH   SFRSYM    DATA     BYTE      PCA0CPH0
      00000092H   SFRSYM    DATA     BYTE      TMR3RLL
      000000EAH   SFRSYM    DATA     BYTE      PCA0CPH1
      00000098H.3 SFRSYM    DATA     BIT       SCON0_TB8
      000000B0H.7 SFRSYM    DATA     BIT       CS0CN0_CSEN
      000000F0H   SFRSYM    DATA     BIT       B_B0
      00000082H   SFRSYM    DATA     WORD      DP
      000000ECH   SFRSYM    DATA     BYTE      PCA0CPH2
      000000F0H.1 SFRSYM    DATA     BIT       B_B1
      000000C3H   SFRSYM    DATA     WORD      ADC0GT
      000000F0H.2 SFRSYM    DATA     BIT       B_B2
      000000FBH   SFRSYM    DATA     BYTE      PCA0CPL0
      000000F0H.3 SFRSYM    DATA     BIT       B_B3
      000000D9H   SFRSYM    DATA     BYTE      PCA0MD
      000000DAH   SFRSYM    DATA     BYTE      PCA0CPM0
      000000E9H   SFRSYM    DATA     BYTE      PCA0CPL1
      000000F0H.4 SFRSYM    DATA     BIT       B_B4
      000000DBH   SFRSYM    DATA     BYTE      PCA0CPM1
      000000EBH   SFRSYM    DATA     BYTE      PCA0CPL2
LX51 LINKER/LOCATER V4.66.30.0                                                        03/07/2020  14:55:04  PAGE 13


      000000F0H.5 SFRSYM    DATA     BIT       B_B5
      000000DCH   SFRSYM    DATA     BYTE      PCA0CPM2
      000000B8H   SFRSYM    DATA     BYTE      IP
      000000BCH   SFRSYM    DATA     BYTE      ADC0TK
      000000F0H.6 SFRSYM    DATA     BIT       B_B6
      000000C5H   SFRSYM    DATA     WORD      ADC0LT
      000000D6H   SFRSYM    DATA     BYTE      IREF0CN0
      00000098H.5 SFRSYM    DATA     BIT       SCON0_MCE
      000000F0H.7 SFRSYM    DATA     BIT       B_B7
      000000E1H   SFRSYM    DATA     BYTE      XBR0
      000000C1H   SFRSYM    DATA     BYTE      SMB0CF
      000000E2H   SFRSYM    DATA     BYTE      XBR1
      000000D2H   SFRSYM    DATA     BYTE      CS0SCAN0
      000000C0H.5 SFRSYM    DATA     BIT       SMB0CN0_STA
      000000E3H   SFRSYM    DATA     BYTE      XBR2
      000000D3H   SFRSYM    DATA     BYTE      CS0SCAN1
      00000096H   SFRSYM    DATA     BYTE      ADC0MX
      000000E0H   SFRSYM    DATA     BIT       ACC_ACC0
      000000D1H   SFRSYM    DATA     BYTE      REF0CN
      000000B2H   SFRSYM    DATA     BYTE      HFO0CN
      0000008EH   SFRSYM    DATA     BYTE      CKCON0
      000000E0H.1 SFRSYM    DATA     BIT       ACC_ACC1
      000000C9H   SFRSYM    DATA     BYTE      REG0CN
      00000085H   SFRSYM    DATA     BYTE      CRC0IN
      000000C8H.2 SFRSYM    DATA     BIT       TMR2CN0_TR2
      000000E0H.2 SFRSYM    DATA     BIT       ACC_ACC2
      000000E0H.3 SFRSYM    DATA     BIT       ACC_ACC3
      00000081H   SFRSYM    DATA     BYTE      SP
      0000009DH   SFRSYM    DATA     BYTE      CMP0MD
      000000E0H.4 SFRSYM    DATA     BIT       ACC_ACC4
      000000D8H   SFRSYM    DATA     BIT       PCA0CN0_CCF0
      000000E0H.5 SFRSYM    DATA     BIT       ACC_ACC5
      000000D8H.1 SFRSYM    DATA     BIT       PCA0CN0_CCF1
      000000E0H.6 SFRSYM    DATA     BIT       ACC_ACC6
      000000CCH   SFRSYM    DATA     WORD      TMR2
      000000D8H.2 SFRSYM    DATA     BIT       PCA0CN0_CCF2
      000000E0H.7 SFRSYM    DATA     BIT       ACC_ACC7
      00000094H   SFRSYM    DATA     WORD      TMR3
      000000B0H   SFRSYM    DATA     BIT       CS0CN0_CSCMPF
      000000C0H.3 SFRSYM    DATA     BIT       SMB0CN0_ACKRQ
      000000FFH   SFRSYM    DATA     BYTE      VDM0CN
      000000F1H   SFRSYM    DATA     BYTE      P0MDIN
      00000098H.4 SFRSYM    DATA     BIT       SCON0_REN
      000000F2H   SFRSYM    DATA     BYTE      P1MDIN
      000000FEH   SFRSYM    DATA     BYTE      CS0THH
      000000C0H.4 SFRSYM    DATA     BIT       SMB0CN0_STO
      000000B5H   SFRSYM    DATA     BYTE      PMU0CF
      000000C7H   SFRSYM    DATA     BYTE      P0MASK
      000000BFH   SFRSYM    DATA     BYTE      P1MASK
      000000FDH   SFRSYM    DATA     BYTE      CS0THL
      000000D0H.3 SFRSYM    DATA     BIT       PSW_RS0
      000000D8H.7 SFRSYM    DATA     BIT       PCA0CN0_CF
      000000F8H.4 SFRSYM    DATA     BIT       SPI0CN0_RXOVRN
      000000D0H.4 SFRSYM    DATA     BIT       PSW_RS1
      000000C8H   SFRSYM    DATA     BIT       TMR2CN0_T2XCLK0
      000000C8H.1 SFRSYM    DATA     BIT       TMR2CN0_T2XCLK1
      000000E8H.7 SFRSYM    DATA     BIT       ADC0CN0_ADEN
      00000089H   SFRSYM    DATA     BYTE      TMOD
      00000088H   SFRSYM    DATA     BYTE      TCON
      000000B5H   SFRSYM    DATA     BYTE      PMU0MD
      000000CEH   SFRSYM    DATA     BYTE      PMU0FL
      0000009CH   SFRSYM    DATA     BYTE      CRC0FLIP
LX51 LINKER/LOCATER V4.66.30.0                                                        03/07/2020  14:55:04  PAGE 14


      000000D0H   SFRSYM    DATA     BIT       PSW_PARITY
      000000A8H.4 SFRSYM    DATA     BIT       IE_ES0
      0000009FH   SFRSYM    DATA     BYTE      CMP0MX
      000000A8H.1 SFRSYM    DATA     BIT       IE_ET0
      000000A8H.3 SFRSYM    DATA     BIT       IE_ET1
      000000D4H   SFRSYM    DATA     BYTE      P0SKIP
      000000A8H.5 SFRSYM    DATA     BIT       IE_ET2
      000000D5H   SFRSYM    DATA     BYTE      P1SKIP
      000000E8H   SFRSYM    DATA     BYTE      ADC0CN0
      000000A8H   SFRSYM    DATA     BIT       IE_EX0
      000000D8H.6 SFRSYM    DATA     BIT       PCA0CN0_CR
      000000A8H.2 SFRSYM    DATA     BIT       IE_EX1
      00000098H.7 SFRSYM    DATA     BIT       SCON0_SMODE
      000000A9H   SFRSYM    DATA     BYTE      CLKSEL
      000000F8H   SFRSYM    DATA     BIT       SPI0CN0_SPIEN
      000000F0H   SFRSYM    DATA     BYTE      B
      000000BEH   SFRSYM    DATA     BYTE      ADC0H
      0000009EH   SFRSYM    DATA     BYTE      CRC0AUTO
      000000B0H.4 SFRSYM    DATA     BIT       CS0CN0_CSBUSY
      000000E8H.6 SFRSYM    DATA     BIT       ADC0CN0_ADBMEN
      000000CAH   SFRSYM    DATA     WORD      TMR2RL
      000000BDH   SFRSYM    DATA     BYTE      ADC0L
      00000092H   SFRSYM    DATA     WORD      TMR3RL
      000000D8H   SFRSYM    DATA     BYTE      PCA0CN0
      000000E0H   SFRSYM    DATA     BYTE      ACC
      00000080H.5 SFRSYM    DATA     BIT       UART_RX
      000000FBH   SFRSYM    DATA     WORD      PCA0CP0
      00000080H.4 SFRSYM    DATA     BIT       UART_TX
      000000E9H   SFRSYM    DATA     WORD      PCA0CP1
      000000EBH   SFRSYM    DATA     WORD      PCA0CP2
      00000084H   SFRSYM    DATA     BYTE      CRC0CN0
      0000008CH   SFRSYM    DATA     BYTE      TH0
      000000B8H.4 SFRSYM    DATA     BIT       IP_PS0
      0000008DH   SFRSYM    DATA     BYTE      TH1
      000000FAH   SFRSYM    DATA     BYTE      PCA0H
      000000B8H.1 SFRSYM    DATA     BIT       IP_PT0
      000000B8H.3 SFRSYM    DATA     BIT       IP_PT1
      000000C0H.2 SFRSYM    DATA     BIT       SMB0CN0_ARBLOST
      000000B8H.5 SFRSYM    DATA     BIT       IP_PT2
      0000008AH   SFRSYM    DATA     BYTE      TL0
      000000AAH   SFRSYM    DATA     BYTE      CS0CF
      000000F8H.1 SFRSYM    DATA     BIT       SPI0CN0_TXBMT
      000000D0H.5 SFRSYM    DATA     BIT       PSW_F0
      000000A8H.6 SFRSYM    DATA     BIT       IE_ESPI0
      0000008BH   SFRSYM    DATA     BYTE      TL1
      000000F9H   SFRSYM    DATA     BYTE      PCA0L
      000000C0H   SFRSYM    DATA     BIT       SMB0CN0_SI
      000000D0H.1 SFRSYM    DATA     BIT       PSW_F1
      00000080H   SFRSYM    DATA     BIT       P0_B0
      000000B8H   SFRSYM    DATA     BIT       IP_PX0
      00000090H   SFRSYM    DATA     BIT       P1_B0
      00000080H.1 SFRSYM    DATA     BIT       P0_B1
      000000B8H.2 SFRSYM    DATA     BIT       IP_PX1
      000000EEH   SFRSYM    DATA     BYTE      CS0DH
      0000009BH   SFRSYM    DATA     BYTE      CMP0CN0
      00000088H.1 SFRSYM    DATA     BIT       TCON_IE0
      00000090H.1 SFRSYM    DATA     BIT       P1_B1
      00000080H.2 SFRSYM    DATA     BIT       P0_B2
      00000088H.3 SFRSYM    DATA     BIT       TCON_IE1
      00000090H.2 SFRSYM    DATA     BIT       P1_B2
      00000080H.3 SFRSYM    DATA     BIT       P0_B3
      000000C0H   SFRSYM    DATA     BYTE      SMB0CN0
LX51 LINKER/LOCATER V4.66.30.0                                                        03/07/2020  14:55:04  PAGE 15


      00000090H.3 SFRSYM    DATA     BIT       P1_B3
      00000080H.4 SFRSYM    DATA     BIT       P0_B4
      00000090H.4 SFRSYM    DATA     BIT       P1_B4
      00000080H.5 SFRSYM    DATA     BIT       P0_B5
      000000EDH   SFRSYM    DATA     BYTE      CS0DL
      00000090H.7 SFRSYM    DATA     BIT       SDA
      00000090H.5 SFRSYM    DATA     BIT       P1_B5
      00000080H.6 SFRSYM    DATA     BIT       P0_B6
      00000090H.6 SFRSYM    DATA     BIT       P1_B6
      00000080H.7 SFRSYM    DATA     BIT       P0_B7
      00000090H.7 SFRSYM    DATA     BIT       P1_B7
      000000A0H.7 SFRSYM    DATA     BIT       P2_B7
      00000083H   SFRSYM    DATA     BYTE      DPH
      000000C4H   SFRSYM    DATA     BYTE      ADC0GTH
      000000C8H.7 SFRSYM    DATA     BIT       TMR2CN0_TF2H
      000000C8H.3 SFRSYM    DATA     BIT       TMR2CN0_T2SPLIT
      000000D0H.6 SFRSYM    DATA     BIT       PSW_AC
      000000F8H   SFRSYM    DATA     BYTE      SPI0CN0
      000000B3H   SFRSYM    DATA     BYTE      HFO0CAL
      000000DEH   SFRSYM    DATA     BYTE      CS0SE
      00000088H.5 SFRSYM    DATA     BIT       TCON_TF0
      00000098H   SFRSYM    DATA     BIT       SCON0_RI
      00000082H   SFRSYM    DATA     BYTE      DPL
      00000088H.7 SFRSYM    DATA     BIT       TCON_TF1
      00000099H   SFRSYM    DATA     BYTE      SBUF0
      00000087H   SFRSYM    DATA     BYTE      PCON0
      000000B9H   SFRSYM    DATA     BYTE      IREF0CF
      000000C3H   SFRSYM    DATA     BYTE      ADC0GTL
      00000090H.6 SFRSYM    DATA     BIT       SCL
      000000C8H.6 SFRSYM    DATA     BIT       TMR2CN0_TF2L
      00000098H.1 SFRSYM    DATA     BIT       SCON0_TI
      000000E8H   SFRSYM    DATA     BIT       ADC0CN0_ADCM0
      000000C6H   SFRSYM    DATA     BYTE      ADC0LTH
      00000088H   SFRSYM    DATA     BIT       TCON_IT0
      000000B0H.1 SFRSYM    DATA     BIT       CS0CN0_CSPME
      000000E8H.1 SFRSYM    DATA     BIT       ADC0CN0_ADCM1
      000000EFH   SFRSYM    DATA     BYTE      RSTSRC
      000000D7H   SFRSYM    DATA     BYTE      P0MAT
      00000086H   SFRSYM    DATA     BYTE      CRC0DAT
      00000088H.2 SFRSYM    DATA     BIT       TCON_IT1
      000000E8H.2 SFRSYM    DATA     BIT       ADC0CN0_ADCM2
      00000098H   SFRSYM    DATA     BYTE      SCON0
      000000CFH   SFRSYM    DATA     BYTE      P1MAT
      000000DEH   SFRSYM    DATA     BYTE      CS0PM
      000000E8H.3 SFRSYM    DATA     BIT       ADC0CN0_ADWINT
      000000E8H.4 SFRSYM    DATA     BIT       ADC0CN0_ADBUSY
      000000F5H   SFRSYM    DATA     BYTE      SMB0ADM
      000000C5H   SFRSYM    DATA     BYTE      ADC0LTL
      000000F8H.5 SFRSYM    DATA     BIT       SPI0CN0_MODF
      000000B8H.6 SFRSYM    DATA     BIT       IP_PSPI0
      000000B0H.6 SFRSYM    DATA     BIT       CS0CN0_CSEOS
      000000C8H   SFRSYM    DATA     BYTE      TMR2CN0
      00000091H   SFRSYM    DATA     BYTE      TMR3CN0
      000000F4H   SFRSYM    DATA     BYTE      SMB0ADR
      00000088H.4 SFRSYM    DATA     BIT       TCON_TR0
      000000B0H.5 SFRSYM    DATA     BIT       CS0CN0_CSINT
      000000ABH   SFRSYM    DATA     BYTE      CS0MX
      000000C8H.4 SFRSYM    DATA     BIT       TMR2CN0_TF2CEN
      00000088H.6 SFRSYM    DATA     BIT       TCON_TR1
      000000C2H   SFRSYM    DATA     BYTE      SMB0DAT
      00000099H   SFRSYM    DATA     BYTE      P0DRV
      000000DDH   SFRSYM    DATA     BYTE      CS0SS
LX51 LINKER/LOCATER V4.66.30.0                                                        03/07/2020  14:55:04  PAGE 16


      000000CDH   SFRSYM    DATA     BYTE      TMR2H
      000000A1H   SFRSYM    DATA     BYTE      SPI0CFG
      0000009BH   SFRSYM    DATA     BYTE      P1DRV
      00000095H   SFRSYM    DATA     BYTE      TMR3H
      0000009DH   SFRSYM    DATA     BYTE      P2DRV
      0000009AH   SFRSYM    DATA     BYTE      CRC0CNT
      000000CCH   SFRSYM    DATA     BYTE      TMR2L
      000000ACH   SFRSYM    DATA     BYTE      RTC0ADR
      000000F8H.7 SFRSYM    DATA     BIT       SPI0CN0_SPIF
      00000094H   SFRSYM    DATA     BYTE      TMR3L
      000000BBH   SFRSYM    DATA     BYTE      ADC0PWR
      000000A8H.7 SFRSYM    DATA     BIT       IE_EA
      000000ADH   SFRSYM    DATA     BYTE      RTC0DAT
      000000B0H.3 SFRSYM    DATA     BIT       CS0CN0_CSCMPEN
      000000B6H   SFRSYM    DATA     BYTE      FLSCL
      000000C8H.5 SFRSYM    DATA     BIT       TMR2CN0_TF2LEN
      000000F8H.6 SFRSYM    DATA     BIT       SPI0CN0_WCOL
      000000F8H.2 SFRSYM    DATA     BIT       SPI0CN0_NSSMD0
      000000D0H.7 SFRSYM    DATA     BIT       PSW_CY
      000000A3H   SFRSYM    DATA     BYTE      SPI0DAT
      000000F8H.3 SFRSYM    DATA     BIT       SPI0CN0_NSSMD1
      000000BDH   SFRSYM    DATA     WORD      ADC0
      0000008EH   SFRSYM    DATA     BYTE      TOFFH
      000000D0H   SFRSYM    DATA     BYTE      PSW
      000000DFH   SFRSYM    DATA     BYTE      PCA0PWM
      000000E2H   SFRSYM    DATA     BYTE      REVID
      0000008DH   SFRSYM    DATA     BYTE      TOFFL
      000000B7H   SFRSYM    DATA     BYTE      FLKEY
      000000BAH   SFRSYM    DATA     BYTE      ADC0AC
      01000AAAH   SYMBOL    CODE     ---       _?ix1000
      01000AB2H   SYMBOL    CODE     ---       _?ix1001

      01000B97H   BLOCK     CODE     ---       LVL=0
      00000006H   SYMBOL    DATA     INT       us
      01000B97H   BLOCK     CODE     NEAR LAB  LVL=1
      0000001AH   SYMBOL    DATA     INT       i
      ---         BLOCKEND  ---      ---       LVL=1
      01000B97H   LINE      CODE     ---       #77
      01000B97H   LINE      CODE     ---       #78
      01000B97H   LINE      CODE     ---       #79
      01000BA2H   LINE      CODE     ---       #80
      01000BB6H   LINE      CODE     ---       #81
      ---         BLOCKEND  ---      ---       LVL=0

      0100002EH   BLOCK     CODE     ---       LVL=0
      00000006H   SYMBOL    DATA     INT       ms
      0100002EH   BLOCK     CODE     NEAR LAB  LVL=1
      00000018H   SYMBOL    DATA     INT       i
      ---         BLOCKEND  ---      ---       LVL=1
      0100002EH   LINE      CODE     ---       #82
      0100002EH   LINE      CODE     ---       #83
      0100002EH   LINE      CODE     ---       #84
      01000032H   LINE      CODE     ---       #85
      0100004FH   LINE      CODE     ---       #86
      ---         BLOCKEND  ---      ---       LVL=0

      01000843H   BLOCK     CODE     VOID      LVL=0
      ---         BLOCKEND  ---      ---       LVL=0

      01000849H   BLOCK     CODE     ---       LVL=0
      00000038H   SYMBOL    DATA     WORD      time
      01000849H   LINE      CODE     ---       #87
LX51 LINKER/LOCATER V4.66.30.0                                                        03/07/2020  14:55:04  PAGE 17


      0100084DH   LINE      CODE     ---       #88
      0100084DH   LINE      CODE     ---       #94
      01000856H   LINE      CODE     ---       #95
      01000856H   LINE      CODE     ---       #96
      0100088EH   LINE      CODE     ---       #97
      01000896H   LINE      CODE     ---       #98
      01000898H   LINE      CODE     ---       #99
      010008A3H   LINE      CODE     ---       #100
      010008ABH   LINE      CODE     ---       #101
      010008ADH   LINE      CODE     ---       #102
      010008C0H   LINE      CODE     ---       #103
      010008CEH   LINE      CODE     ---       #104
      010008EBH   LINE      CODE     ---       #105
      010008EDH   LINE      CODE     ---       #106
      010008EDH   LINE      CODE     ---       #107
      010008FBH   LINE      CODE     ---       #108
      010008FBH   LINE      CODE     ---       #109
      ---         BLOCKEND  ---      ---       LVL=0

      01000BB7H   BLOCK     CODE     ---       LVL=0
      01000BB7H   LINE      CODE     ---       #116
      01000BB7H   LINE      CODE     ---       #117
      01000BB7H   LINE      CODE     ---       #118
      01000BB9H   LINE      CODE     ---       #119
      01000BC0H   LINE      CODE     ---       #120
      01000BC2H   LINE      CODE     ---       #121
      01000BC9H   LINE      CODE     ---       #122
      01000BCBH   LINE      CODE     ---       #123
      01000BCEH   LINE      CODE     ---       #126
      01000BD0H   LINE      CODE     ---       #127
      ---         BLOCKEND  ---      ---       LVL=0

      01000C09H   BLOCK     CODE     ---       LVL=0
      01000C09H   LINE      CODE     ---       #129
      01000C09H   LINE      CODE     ---       #130
      01000C09H   LINE      CODE     ---       #131
      01000C0BH   LINE      CODE     ---       #132
      01000C12H   LINE      CODE     ---       #133
      01000C14H   LINE      CODE     ---       #134
      01000C1BH   LINE      CODE     ---       #135
      01000C1BH   LINE      CODE     ---       #136
      01000C1EH   LINE      CODE     ---       #137
      01000C20H   LINE      CODE     ---       #138
      ---         BLOCKEND  ---      ---       LVL=0

      01000BD7H   BLOCK     CODE     ---       LVL=0
      00000007H   SYMBOL    DATA     BYTE      bit_out
      01000BD7H   LINE      CODE     ---       #139
      01000BD7H   LINE      CODE     ---       #140
      01000BD7H   LINE      CODE     ---       #141
      01000BDAH   LINE      CODE     ---       #142
      01000BDAH   LINE      CODE     ---       #143
      01000BDCH   LINE      CODE     ---       #144
      01000BDEH   LINE      CODE     ---       #146
      01000BDEH   LINE      CODE     ---       #147
      01000BE0H   LINE      CODE     ---       #148
      01000BE0H   LINE      CODE     ---       #149
      01000BE7H   LINE      CODE     ---       #150
      01000BE7H   LINE      CODE     ---       #151
      01000BEAH   LINE      CODE     ---       #152
      01000BECH   LINE      CODE     ---       #153
      01000BEFH   LINE      CODE     ---       #156
LX51 LINKER/LOCATER V4.66.30.0                                                        03/07/2020  14:55:04  PAGE 18


      ---         BLOCKEND  ---      ---       LVL=0

      01000B75H   BLOCK     CODE     ---       LVL=0
      01000B75H   BLOCK     CODE     NEAR LAB  LVL=1
      00000037H   SYMBOL    DATA     BYTE      Ack_bit
      ---         BLOCKEND  ---      ---       LVL=1
      01000B75H   LINE      CODE     ---       #157
      01000B75H   LINE      CODE     ---       #158
      01000B75H   LINE      CODE     ---       #160
      01000B77H   LINE      CODE     ---       #161
      01000B79H   LINE      CODE     ---       #162
      01000B80H   LINE      CODE     ---       #163
      01000B83H   LINE      CODE     ---       #164
      01000B83H   LINE      CODE     ---       #165
      01000B86H   LINE      CODE     ---       #166
      01000B88H   LINE      CODE     ---       #168
      01000B88H   LINE      CODE     ---       #169
      01000B8BH   LINE      CODE     ---       #170
      01000B8BH   LINE      CODE     ---       #171
      01000B8DH   LINE      CODE     ---       #172
      01000B94H   LINE      CODE     ---       #173
      01000B96H   LINE      CODE     ---       #174
      ---         BLOCKEND  ---      ---       LVL=0

      01000003H   BLOCK     CODE     ---       LVL=0
      00000034H   SYMBOL    DATA     BYTE      Tx_buffer
      01000005H   BLOCK     CODE     NEAR LAB  LVL=1
      00000035H   SYMBOL    DATA     BYTE      Bit_counter
      00000007H   SYMBOL    DATA     BYTE      Ack_bit
      00000036H   SYMBOL    DATA     BYTE      bit_out
      ---         BLOCKEND  ---      ---       LVL=1
      01000003H   LINE      CODE     ---       #175
      01000005H   LINE      CODE     ---       #176
      01000005H   LINE      CODE     ---       #180
      01000008H   LINE      CODE     ---       #181
      01000008H   LINE      CODE     ---       #182
      0100000DH   LINE      CODE     ---       #183
      0100000DH   LINE      CODE     ---       #184
      01000010H   LINE      CODE     ---       #185
      01000012H   LINE      CODE     ---       #187
      01000012H   LINE      CODE     ---       #188
      01000015H   LINE      CODE     ---       #189
      01000015H   LINE      CODE     ---       #190
      0100001AH   LINE      CODE     ---       #191
      01000020H   LINE      CODE     ---       #192
      01000023H   LINE      CODE     ---       #193
      01000026H   LINE      CODE     ---       #194
      01000026H   LINE      CODE     ---       #195
      ---         BLOCKEND  ---      ---       LVL=0

      01000B4BH   BLOCK     CODE     ---       LVL=0
      00000034H   SYMBOL    DATA     BYTE      ack_nack
      01000B4DH   BLOCK     CODE     NEAR LAB  LVL=1
      00000035H   SYMBOL    DATA     BYTE      RX_buffer
      00000036H   SYMBOL    DATA     BYTE      Bit_Counter
      ---         BLOCKEND  ---      ---       LVL=1
      01000B4BH   LINE      CODE     ---       #197
      01000B4DH   LINE      CODE     ---       #198
      01000B4DH   LINE      CODE     ---       #201
      01000B50H   LINE      CODE     ---       #202
      01000B50H   LINE      CODE     ---       #203
      01000B56H   LINE      CODE     ---       #204
LX51 LINKER/LOCATER V4.66.30.0                                                        03/07/2020  14:55:04  PAGE 19


      01000B56H   LINE      CODE     ---       #205
      01000B5CH   LINE      CODE     ---       #206
      01000B5FH   LINE      CODE     ---       #207
      01000B61H   LINE      CODE     ---       #209
      01000B61H   LINE      CODE     ---       #210
      01000B67H   LINE      CODE     ---       #211
      01000B6AH   LINE      CODE     ---       #212
      01000B6AH   LINE      CODE     ---       #213
      01000B6DH   LINE      CODE     ---       #214
      01000B72H   LINE      CODE     ---       #215
      01000B74H   LINE      CODE     ---       #216
      ---         BLOCKEND  ---      ---       LVL=0

      01000759H   BLOCK     CODE     ---       LVL=0
      00000034H   SYMBOL    DATA     ---       pec
      0100075FH   BLOCK     CODE     NEAR LAB  LVL=1
      00000037H   SYMBOL    DATA     ---       crc
      0000003DH   SYMBOL    DATA     BYTE      BitPosition
      0000003EH   SYMBOL    DATA     BYTE      shift
      0000003FH   SYMBOL    DATA     BYTE      i
      00000040H   SYMBOL    DATA     BYTE      j
      00000041H   SYMBOL    DATA     BYTE      temp
      ---         BLOCKEND  ---      ---       LVL=1
      01000759H   LINE      CODE     ---       #217
      0100075FH   LINE      CODE     ---       #218
      0100075FH   LINE      CODE     ---       #220
      01000762H   LINE      CODE     ---       #226
      01000762H   LINE      CODE     ---       #227
      01000765H   LINE      CODE     ---       #228
      01000767H   LINE      CODE     ---       #229
      01000769H   LINE      CODE     ---       #230
      0100076BH   LINE      CODE     ---       #231
      0100076EH   LINE      CODE     ---       #232
      01000771H   LINE      CODE     ---       #233
      01000774H   LINE      CODE     ---       #234
      01000776H   LINE      CODE     ---       #235
      01000779H   LINE      CODE     ---       #236
      0100077BH   LINE      CODE     ---       #237
      010007AEH   LINE      CODE     ---       #238
      010007AEH   LINE      CODE     ---       #239
      010007B0H   LINE      CODE     ---       #240
      010007B6H   LINE      CODE     ---       #241
      010007B6H   LINE      CODE     ---       #242
      010007B8H   LINE      CODE     ---       #243
      010007BAH   LINE      CODE     ---       #245
      010007BAH   LINE      CODE     ---       #246
      010007BDH   LINE      CODE     ---       #247
      010007BFH   LINE      CODE     ---       #248
      010007BFH   LINE      CODE     ---       #249
      010007C1H   LINE      CODE     ---       #251
      010007C7H   LINE      CODE     ---       #253
      010007CBH   LINE      CODE     ---       #254
      010007CBH   LINE      CODE     ---       #255
      010007D5H   LINE      CODE     ---       #256
      010007D5H   LINE      CODE     ---       #257
      010007E5H   LINE      CODE     ---       #258
      010007E5H   LINE      CODE     ---       #259
      010007E8H   LINE      CODE     ---       #260
      010007EAH   LINE      CODE     ---       #262
      010007EAH   LINE      CODE     ---       #263
      010007EDH   LINE      CODE     ---       #264
      010007EDH   LINE      CODE     ---       #265
LX51 LINKER/LOCATER V4.66.30.0                                                        03/07/2020  14:55:04  PAGE 20


      010007FAH   LINE      CODE     ---       #266
      01000803H   LINE      CODE     ---       #267
      01000807H   LINE      CODE     ---       #268
      01000809H   LINE      CODE     ---       #269
      0100080BH   LINE      CODE     ---       #270
      0100080EH   LINE      CODE     ---       #271
      0100080EH   LINE      CODE     ---       #272
      01000827H   LINE      CODE     ---       #273
      0100082EH   LINE      CODE     ---       #274
      0100082EH   LINE      CODE     ---       #275
      01000838H   LINE      CODE     ---       #276
      01000842H   LINE      CODE     ---       #277
      ---         BLOCKEND  ---      ---       LVL=0

      010008FCH   BLOCK     CODE     VOID      LVL=0
      ---         BLOCKEND  ---      ---       LVL=0

      01000905H   BLOCK     CODE     ---       LVL=0
      00000034H   SYMBOL    DATA     ---       buffer
      00000002H   SYMBOL    DATA     WORD      h
      00000037H   SYMBOL    DATA     INT       len
      00000039H   SYMBOL    DATA     INT       i
      0000003BH   SYMBOL    DATA     WORD      t
      0100090FH   BLOCK     CODE     NEAR LAB  LVL=1
      00000037H   SYMBOL    DATA     INT       len
      00000039H   SYMBOL    DATA     INT       i
      0000003BH   SYMBOL    DATA     WORD      t
      ---         BLOCKEND  ---      ---       LVL=1
      01000905H   LINE      CODE     ---       #319
      0100090FH   LINE      CODE     ---       #320
      0100090FH   LINE      CODE     ---       #321
      01000914H   LINE      CODE     ---       #323
      01000918H   LINE      CODE     ---       #324
      01000923H   LINE      CODE     ---       #325
      01000932H   LINE      CODE     ---       #326
      0100093AH   LINE      CODE     ---       #327
      0100093CH   LINE      CODE     ---       #328
      01000940H   LINE      CODE     ---       #329
      01000956H   LINE      CODE     ---       #330
      01000985H   LINE      CODE     ---       #331
      01000994H   LINE      CODE     ---       #332
      0100099EH   LINE      CODE     ---       #333
      010009A2H   LINE      CODE     ---       #334
      ---         BLOCKEND  ---      ---       LVL=0

      01000534H   BLOCK     CODE     ---       LVL=0
      0000001CH   SYMBOL    DATA     BYTE      slaveAddress
      0000001DH   SYMBOL    DATA     BYTE      command
      01000538H   BLOCK     CODE     NEAR LAB  LVL=1
      0000001EH   SYMBOL    DATA     ---       buf1
      00000026H   SYMBOL    DATA     INT       len
      00000028H   SYMBOL    DATA     WORD      tempdata
      0000002AH   SYMBOL    DATA     BYTE      Pec
      0000002BH   SYMBOL    DATA     BYTE      DataL
      0000002CH   SYMBOL    DATA     BYTE      DataH
      0000002DH   SYMBOL    DATA     ---       arr
      00000007H   SYMBOL    DATA     BYTE      PecReg
      00000033H   SYMBOL    DATA     BYTE      ErrorCounter
      0100055CH   SYMBOL    CODE     VOID      repeat
      ---         BLOCKEND  ---      ---       LVL=1
      01000534H   LINE      CODE     ---       #335
      01000538H   LINE      CODE     ---       #336
LX51 LINKER/LOCATER V4.66.30.0                                                        03/07/2020  14:55:04  PAGE 21


      01000538H   LINE      CODE     ---       #337
      0100054BH   LINE      CODE     ---       #338
      01000550H   LINE      CODE     ---       #341
      01000552H   LINE      CODE     ---       #342
      01000554H   LINE      CODE     ---       #346
      01000556H   LINE      CODE     ---       #347
      0100055CH   LINE      CODE     ---       #349
      0100055CH   LINE      CODE     ---       #350
      0100055FH   LINE      CODE     ---       #351
      01000561H   LINE      CODE     ---       #352
      01000565H   LINE      CODE     ---       #353
      01000565H   LINE      CODE     ---       #354
      01000565H   LINE      CODE     ---       #355
      01000565H   LINE      CODE     ---       #356
      01000568H   LINE      CODE     ---       #357
      01000570H   LINE      CODE     ---       #358
      01000570H   LINE      CODE     ---       #359
      01000570H   LINE      CODE     ---       #360
      01000570H   LINE      CODE     ---       #361
      01000578H   LINE      CODE     ---       #362
      01000578H   LINE      CODE     ---       #363
      01000578H   LINE      CODE     ---       #364
      01000578H   LINE      CODE     ---       #365
      0100057BH   LINE      CODE     ---       #366
      01000585H   LINE      CODE     ---       #367
      01000585H   LINE      CODE     ---       #368
      01000585H   LINE      CODE     ---       #369
      01000585H   LINE      CODE     ---       #370
      0100058CH   LINE      CODE     ---       #371
      01000593H   LINE      CODE     ---       #372
      0100059AH   LINE      CODE     ---       #373
      0100059DH   LINE      CODE     ---       #374
      010005A0H   LINE      CODE     ---       #375
      010005A3H   LINE      CODE     ---       #376
      010005A8H   LINE      CODE     ---       #377
      010005ABH   LINE      CODE     ---       #378
      010005AEH   LINE      CODE     ---       #379
      010005B1H   LINE      CODE     ---       #380
      010005B9H   LINE      CODE     ---       #381
      010005B9H   LINE      CODE     ---       #382
      010005BDH   LINE      CODE     ---       #385
      010005C6H   LINE      CODE     ---       #386
      010005D3H   LINE      CODE     ---       #387
      010005E0H   LINE      CODE     ---       #388
      010005EDH   LINE      CODE     ---       #389
      010005F6H   LINE      CODE     ---       #390
      01000603H   LINE      CODE     ---       #391
      01000610H   LINE      CODE     ---       #392
      0100061DH   LINE      CODE     ---       #394
      01000625H   LINE      CODE     ---       #395
      01000636H   LINE      CODE     ---       #396
      01000643H   LINE      CODE     ---       #397
      01000650H   LINE      CODE     ---       #398
      0100065DH   LINE      CODE     ---       #399
      01000661H   LINE      CODE     ---       #400
      ---         BLOCKEND  ---      ---       LVL=0

      01000A06H   BLOCK     CODE     ---       LVL=0
      01000A06H   BLOCK     CODE     NEAR LAB  LVL=1
      00000018H   SYMBOL    DATA     FLOAT     real_temp
      00000006H   SYMBOL    DATA     WORD      tempdata
      ---         BLOCKEND  ---      ---       LVL=1
LX51 LINKER/LOCATER V4.66.30.0                                                        03/07/2020  14:55:04  PAGE 22


      01000A06H   LINE      CODE     ---       #402
      01000A06H   LINE      CODE     ---       #403
      01000A06H   LINE      CODE     ---       #406
      01000A0DH   LINE      CODE     ---       #407
      01000A33H   LINE      CODE     ---       #408
      01000A48H   LINE      CODE     ---       #409
      ---         BLOCKEND  ---      ---       LVL=0

      010009A3H   BLOCK     CODE     ---       LVL=0
      010009A3H   BLOCK     CODE     NEAR LAB  LVL=1
      0000000CH   SYMBOL    DATA     ---       buf1
      00000014H   SYMBOL    DATA     INT       len
      00000016H   SYMBOL    DATA     INT       temp_100bei
      ---         BLOCKEND  ---      ---       LVL=1
      010009A3H   LINE      CODE     ---       #411
      010009A3H   LINE      CODE     ---       #412
      010009A3H   LINE      CODE     ---       #413
      010009B6H   LINE      CODE     ---       #414
      010009BBH   LINE      CODE     ---       #417
      010009BEH   LINE      CODE     ---       #418
      010009BEH   LINE      CODE     ---       #419
      010009BEH   LINE      CODE     ---       #420
      010009C5H   LINE      CODE     ---       #421
      010009D6H   LINE      CODE     ---       #422
      010009E3H   LINE      CODE     ---       #423
      010009F0H   LINE      CODE     ---       #424
      010009FDH   LINE      CODE     ---       #425
      01000A04H   LINE      CODE     ---       #426
      ---         BLOCKEND  ---      ---       LVL=0

      ---         MODULE    ---      ---       INITDEVICE
      01000B23H   PUBLIC    CODE     ---       _uart_send
      01000CADH   PUBLIC    CODE     ---       INTERRUPT_0_enter_DefaultMode_from_RESET
      01000CB8H   PUBLIC    CODE     ---       UART_0_enter_DefaultMode_from_RESET
      01000C38H   PUBLIC    CODE     ---       ADC_0_enter_DefaultMode_from_RESET
      01000C81H   PUBLIC    CODE     ---       TIMER_SETUP_0_enter_DefaultMode_from_RESET
      01000BF0H   PUBLIC    CODE     ---       TIMER16_2_enter_DefaultMode_from_RESET
      01000C4DH   PUBLIC    CODE     ---       TIMER01_0_enter_DefaultMode_from_RESET
      01000050H   PUBLIC    CODE     ---       FLASH_0_enter_DefaultMode_from_RESET
      01000C9DH   PUBLIC    CODE     ---       CLOCK_0_enter_DefaultMode_from_RESET
      01000C94H   PUBLIC    CODE     ---       HFOSC_0_enter_DefaultMode_from_RESET
      01000CB4H   PUBLIC    CODE     ---       RSTSRC_0_enter_DefaultMode_from_RESET
      01000CA6H   PUBLIC    CODE     ---       PBCFG_0_enter_DefaultMode_from_RESET
      01000C68H   PUBLIC    CODE     ---       PORTS_1_enter_DefaultMode_from_RESET
      01000C5BH   PUBLIC    CODE     ---       PORTS_0_enter_DefaultMode_from_RESET
      01000027H   PUBLIC    CODE     ---       VREG_0_enter_DefaultMode_from_RESET
      01000C8BH   PUBLIC    CODE     ---       PCA_0_enter_DefaultMode_from_RESET
      01000ABAH   PUBLIC    CODE     ---       enter_DefaultMode_from_RESET
      000000A2H   SFRSYM    DATA     BYTE      SPI0CKR
      00000080H   SFRSYM    DATA     BYTE      P0
      000000D0H.2 SFRSYM    DATA     BIT       PSW_OV
      000000B1H   SFRSYM    DATA     BYTE      XOSC0CN
      00000090H   SFRSYM    DATA     BYTE      P1
      000000A0H   SFRSYM    DATA     BYTE      P2
      00000097H   SFRSYM    DATA     BYTE      ADC0CF
      000000C0H.7 SFRSYM    DATA     BIT       SMB0CN0_MASTER
      000000F9H   SFRSYM    DATA     WORD      PCA0
      000000AEH   SFRSYM    DATA     BYTE      RTC0KEY
      000000E6H   SFRSYM    DATA     BYTE      EIE1
      000000C0H.1 SFRSYM    DATA     BIT       SMB0CN0_ACK
      000000E7H   SFRSYM    DATA     BYTE      EIE2
      0000008FH   SFRSYM    DATA     BYTE      PSCTL
LX51 LINKER/LOCATER V4.66.30.0                                                        03/07/2020  14:55:04  PAGE 23


      000000E4H   SFRSYM    DATA     BYTE      IT01CF
      000000B0H   SFRSYM    DATA     BYTE      CS0CN0
      000000C0H.6 SFRSYM    DATA     BIT       SMB0CN0_TXMODE
      000000E3H   SFRSYM    DATA     BYTE      DERIVID
      000000AFH   SFRSYM    DATA     BYTE      CS0MD1
      000000A7H   SFRSYM    DATA     BYTE      SFRPAGE
      000000F3H   SFRSYM    DATA     BYTE      CS0MD2
      000000A4H   SFRSYM    DATA     BYTE      P0MDOUT
      000000F3H   SFRSYM    DATA     BYTE      CS0MD3
      000000A5H   SFRSYM    DATA     BYTE      P1MDOUT
      000000E8H.5 SFRSYM    DATA     BIT       ADC0CN0_ADINT
      000000CBH   SFRSYM    DATA     BYTE      TMR2RLH
      000000A6H   SFRSYM    DATA     BYTE      P2MDOUT
      000000A8H   SFRSYM    DATA     BYTE      IE
      00000093H   SFRSYM    DATA     BYTE      TMR3RLH
      000000F6H   SFRSYM    DATA     BYTE      EIP1
      000000F7H   SFRSYM    DATA     BYTE      EIP2
      00000098H.2 SFRSYM    DATA     BIT       SCON0_RB8
      000000CAH   SFRSYM    DATA     BYTE      TMR2RLL
      000000FCH   SFRSYM    DATA     BYTE      PCA0CPH0
      00000092H   SFRSYM    DATA     BYTE      TMR3RLL
      000000EAH   SFRSYM    DATA     BYTE      PCA0CPH1
      00000098H.3 SFRSYM    DATA     BIT       SCON0_TB8
      000000B0H.7 SFRSYM    DATA     BIT       CS0CN0_CSEN
      000000F0H   SFRSYM    DATA     BIT       B_B0
      00000082H   SFRSYM    DATA     WORD      DP
      000000ECH   SFRSYM    DATA     BYTE      PCA0CPH2
      000000F0H.1 SFRSYM    DATA     BIT       B_B1
      000000C3H   SFRSYM    DATA     WORD      ADC0GT
      000000F0H.2 SFRSYM    DATA     BIT       B_B2
      000000FBH   SFRSYM    DATA     BYTE      PCA0CPL0
      000000F0H.3 SFRSYM    DATA     BIT       B_B3
      000000D9H   SFRSYM    DATA     BYTE      PCA0MD
      000000DAH   SFRSYM    DATA     BYTE      PCA0CPM0
      000000E9H   SFRSYM    DATA     BYTE      PCA0CPL1
      000000F0H.4 SFRSYM    DATA     BIT       B_B4
      000000DBH   SFRSYM    DATA     BYTE      PCA0CPM1
      000000EBH   SFRSYM    DATA     BYTE      PCA0CPL2
      000000F0H.5 SFRSYM    DATA     BIT       B_B5
      000000DCH   SFRSYM    DATA     BYTE      PCA0CPM2
      000000B8H   SFRSYM    DATA     BYTE      IP
      000000BCH   SFRSYM    DATA     BYTE      ADC0TK
      000000F0H.6 SFRSYM    DATA     BIT       B_B6
      000000C5H   SFRSYM    DATA     WORD      ADC0LT
      000000D6H   SFRSYM    DATA     BYTE      IREF0CN0
      00000098H.5 SFRSYM    DATA     BIT       SCON0_MCE
      000000F0H.7 SFRSYM    DATA     BIT       B_B7
      000000E1H   SFRSYM    DATA     BYTE      XBR0
      000000C1H   SFRSYM    DATA     BYTE      SMB0CF
      000000E2H   SFRSYM    DATA     BYTE      XBR1
      000000D2H   SFRSYM    DATA     BYTE      CS0SCAN0
      000000C0H.5 SFRSYM    DATA     BIT       SMB0CN0_STA
      000000E3H   SFRSYM    DATA     BYTE      XBR2
      000000D3H   SFRSYM    DATA     BYTE      CS0SCAN1
      00000096H   SFRSYM    DATA     BYTE      ADC0MX
      000000E0H   SFRSYM    DATA     BIT       ACC_ACC0
      000000D1H   SFRSYM    DATA     BYTE      REF0CN
      000000B2H   SFRSYM    DATA     BYTE      HFO0CN
      0000008EH   SFRSYM    DATA     BYTE      CKCON0
      000000E0H.1 SFRSYM    DATA     BIT       ACC_ACC1
      000000C9H   SFRSYM    DATA     BYTE      REG0CN
      00000085H   SFRSYM    DATA     BYTE      CRC0IN
LX51 LINKER/LOCATER V4.66.30.0                                                        03/07/2020  14:55:04  PAGE 24


      000000C8H.2 SFRSYM    DATA     BIT       TMR2CN0_TR2
      000000E0H.2 SFRSYM    DATA     BIT       ACC_ACC2
      000000E0H.3 SFRSYM    DATA     BIT       ACC_ACC3
      00000081H   SFRSYM    DATA     BYTE      SP
      0000009DH   SFRSYM    DATA     BYTE      CMP0MD
      000000E0H.4 SFRSYM    DATA     BIT       ACC_ACC4
      000000D8H   SFRSYM    DATA     BIT       PCA0CN0_CCF0
      000000E0H.5 SFRSYM    DATA     BIT       ACC_ACC5
      000000D8H.1 SFRSYM    DATA     BIT       PCA0CN0_CCF1
      000000E0H.6 SFRSYM    DATA     BIT       ACC_ACC6
      000000CCH   SFRSYM    DATA     WORD      TMR2
      000000D8H.2 SFRSYM    DATA     BIT       PCA0CN0_CCF2
      000000E0H.7 SFRSYM    DATA     BIT       ACC_ACC7
      00000094H   SFRSYM    DATA     WORD      TMR3
      000000B0H   SFRSYM    DATA     BIT       CS0CN0_CSCMPF
      000000C0H.3 SFRSYM    DATA     BIT       SMB0CN0_ACKRQ
      000000FFH   SFRSYM    DATA     BYTE      VDM0CN
      000000F1H   SFRSYM    DATA     BYTE      P0MDIN
      00000098H.4 SFRSYM    DATA     BIT       SCON0_REN
      000000F2H   SFRSYM    DATA     BYTE      P1MDIN
      000000FEH   SFRSYM    DATA     BYTE      CS0THH
      000000C0H.4 SFRSYM    DATA     BIT       SMB0CN0_STO
      000000B5H   SFRSYM    DATA     BYTE      PMU0CF
      000000C7H   SFRSYM    DATA     BYTE      P0MASK
      000000BFH   SFRSYM    DATA     BYTE      P1MASK
      000000FDH   SFRSYM    DATA     BYTE      CS0THL
      000000D0H.3 SFRSYM    DATA     BIT       PSW_RS0
      000000D8H.7 SFRSYM    DATA     BIT       PCA0CN0_CF
      000000F8H.4 SFRSYM    DATA     BIT       SPI0CN0_RXOVRN
      000000D0H.4 SFRSYM    DATA     BIT       PSW_RS1
      000000C8H   SFRSYM    DATA     BIT       TMR2CN0_T2XCLK0
      000000C8H.1 SFRSYM    DATA     BIT       TMR2CN0_T2XCLK1
      000000E8H.7 SFRSYM    DATA     BIT       ADC0CN0_ADEN
      00000089H   SFRSYM    DATA     BYTE      TMOD
      00000088H   SFRSYM    DATA     BYTE      TCON
      000000B5H   SFRSYM    DATA     BYTE      PMU0MD
      000000CEH   SFRSYM    DATA     BYTE      PMU0FL
      0000009CH   SFRSYM    DATA     BYTE      CRC0FLIP
      000000D0H   SFRSYM    DATA     BIT       PSW_PARITY
      000000A8H.4 SFRSYM    DATA     BIT       IE_ES0
      0000009FH   SFRSYM    DATA     BYTE      CMP0MX
      000000A8H.1 SFRSYM    DATA     BIT       IE_ET0
      000000A8H.3 SFRSYM    DATA     BIT       IE_ET1
      000000D4H   SFRSYM    DATA     BYTE      P0SKIP
      000000A8H.5 SFRSYM    DATA     BIT       IE_ET2
      000000D5H   SFRSYM    DATA     BYTE      P1SKIP
      000000E8H   SFRSYM    DATA     BYTE      ADC0CN0
      000000A8H   SFRSYM    DATA     BIT       IE_EX0
      000000D8H.6 SFRSYM    DATA     BIT       PCA0CN0_CR
      000000A8H.2 SFRSYM    DATA     BIT       IE_EX1
      00000098H.7 SFRSYM    DATA     BIT       SCON0_SMODE
      000000A9H   SFRSYM    DATA     BYTE      CLKSEL
      000000F8H   SFRSYM    DATA     BIT       SPI0CN0_SPIEN
      000000F0H   SFRSYM    DATA     BYTE      B
      000000BEH   SFRSYM    DATA     BYTE      ADC0H
      0000009EH   SFRSYM    DATA     BYTE      CRC0AUTO
      000000B0H.4 SFRSYM    DATA     BIT       CS0CN0_CSBUSY
      000000E8H.6 SFRSYM    DATA     BIT       ADC0CN0_ADBMEN
      000000CAH   SFRSYM    DATA     WORD      TMR2RL
      000000BDH   SFRSYM    DATA     BYTE      ADC0L
      00000092H   SFRSYM    DATA     WORD      TMR3RL
      000000D8H   SFRSYM    DATA     BYTE      PCA0CN0
LX51 LINKER/LOCATER V4.66.30.0                                                        03/07/2020  14:55:04  PAGE 25


      000000E0H   SFRSYM    DATA     BYTE      ACC
      000000FBH   SFRSYM    DATA     WORD      PCA0CP0
      000000E9H   SFRSYM    DATA     WORD      PCA0CP1
      000000EBH   SFRSYM    DATA     WORD      PCA0CP2
      00000084H   SFRSYM    DATA     BYTE      CRC0CN0
      0000008CH   SFRSYM    DATA     BYTE      TH0
      000000B8H.4 SFRSYM    DATA     BIT       IP_PS0
      0000008DH   SFRSYM    DATA     BYTE      TH1
      000000FAH   SFRSYM    DATA     BYTE      PCA0H
      000000B8H.1 SFRSYM    DATA     BIT       IP_PT0
      000000B8H.3 SFRSYM    DATA     BIT       IP_PT1
      000000C0H.2 SFRSYM    DATA     BIT       SMB0CN0_ARBLOST
      000000B8H.5 SFRSYM    DATA     BIT       IP_PT2
      0000008AH   SFRSYM    DATA     BYTE      TL0
      000000AAH   SFRSYM    DATA     BYTE      CS0CF
      000000F8H.1 SFRSYM    DATA     BIT       SPI0CN0_TXBMT
      000000D0H.5 SFRSYM    DATA     BIT       PSW_F0
      000000A8H.6 SFRSYM    DATA     BIT       IE_ESPI0
      0000008BH   SFRSYM    DATA     BYTE      TL1
      000000F9H   SFRSYM    DATA     BYTE      PCA0L
      000000C0H   SFRSYM    DATA     BIT       SMB0CN0_SI
      000000D0H.1 SFRSYM    DATA     BIT       PSW_F1
      00000080H   SFRSYM    DATA     BIT       P0_B0
      000000B8H   SFRSYM    DATA     BIT       IP_PX0
      00000090H   SFRSYM    DATA     BIT       P1_B0
      00000080H.1 SFRSYM    DATA     BIT       P0_B1
      000000B8H.2 SFRSYM    DATA     BIT       IP_PX1
      000000EEH   SFRSYM    DATA     BYTE      CS0DH
      0000009BH   SFRSYM    DATA     BYTE      CMP0CN0
      00000088H.1 SFRSYM    DATA     BIT       TCON_IE0
      00000090H.1 SFRSYM    DATA     BIT       P1_B1
      00000080H.2 SFRSYM    DATA     BIT       P0_B2
      00000088H.3 SFRSYM    DATA     BIT       TCON_IE1
      00000090H.2 SFRSYM    DATA     BIT       P1_B2
      00000080H.3 SFRSYM    DATA     BIT       P0_B3
      000000C0H   SFRSYM    DATA     BYTE      SMB0CN0
      00000090H.3 SFRSYM    DATA     BIT       P1_B3
      00000080H.4 SFRSYM    DATA     BIT       P0_B4
      00000090H.4 SFRSYM    DATA     BIT       P1_B4
      00000080H.5 SFRSYM    DATA     BIT       P0_B5
      000000EDH   SFRSYM    DATA     BYTE      CS0DL
      00000090H.5 SFRSYM    DATA     BIT       P1_B5
      00000080H.6 SFRSYM    DATA     BIT       P0_B6
      00000090H.6 SFRSYM    DATA     BIT       P1_B6
      00000080H.7 SFRSYM    DATA     BIT       P0_B7
      00000090H.7 SFRSYM    DATA     BIT       P1_B7
      000000A0H.7 SFRSYM    DATA     BIT       P2_B7
      00000083H   SFRSYM    DATA     BYTE      DPH
      000000C4H   SFRSYM    DATA     BYTE      ADC0GTH
      000000C8H.7 SFRSYM    DATA     BIT       TMR2CN0_TF2H
      000000C8H.3 SFRSYM    DATA     BIT       TMR2CN0_T2SPLIT
      000000D0H.6 SFRSYM    DATA     BIT       PSW_AC
      000000F8H   SFRSYM    DATA     BYTE      SPI0CN0
      000000B3H   SFRSYM    DATA     BYTE      HFO0CAL
      000000DEH   SFRSYM    DATA     BYTE      CS0SE
      00000088H.5 SFRSYM    DATA     BIT       TCON_TF0
      00000098H   SFRSYM    DATA     BIT       SCON0_RI
      00000082H   SFRSYM    DATA     BYTE      DPL
      00000088H.7 SFRSYM    DATA     BIT       TCON_TF1
      00000099H   SFRSYM    DATA     BYTE      SBUF0
      00000087H   SFRSYM    DATA     BYTE      PCON0
      000000B9H   SFRSYM    DATA     BYTE      IREF0CF
LX51 LINKER/LOCATER V4.66.30.0                                                        03/07/2020  14:55:04  PAGE 26


      000000C3H   SFRSYM    DATA     BYTE      ADC0GTL
      000000C8H.6 SFRSYM    DATA     BIT       TMR2CN0_TF2L
      00000098H.1 SFRSYM    DATA     BIT       SCON0_TI
      000000E8H   SFRSYM    DATA     BIT       ADC0CN0_ADCM0
      000000C6H   SFRSYM    DATA     BYTE      ADC0LTH
      00000088H   SFRSYM    DATA     BIT       TCON_IT0
      000000B0H.1 SFRSYM    DATA     BIT       CS0CN0_CSPME
      000000E8H.1 SFRSYM    DATA     BIT       ADC0CN0_ADCM1
      000000EFH   SFRSYM    DATA     BYTE      RSTSRC
      000000D7H   SFRSYM    DATA     BYTE      P0MAT
      00000086H   SFRSYM    DATA     BYTE      CRC0DAT
      00000088H.2 SFRSYM    DATA     BIT       TCON_IT1
      000000E8H.2 SFRSYM    DATA     BIT       ADC0CN0_ADCM2
      00000098H   SFRSYM    DATA     BYTE      SCON0
      000000CFH   SFRSYM    DATA     BYTE      P1MAT
      000000DEH   SFRSYM    DATA     BYTE      CS0PM
      000000E8H.3 SFRSYM    DATA     BIT       ADC0CN0_ADWINT
      000000E8H.4 SFRSYM    DATA     BIT       ADC0CN0_ADBUSY
      000000F5H   SFRSYM    DATA     BYTE      SMB0ADM
      000000C5H   SFRSYM    DATA     BYTE      ADC0LTL
      000000F8H.5 SFRSYM    DATA     BIT       SPI0CN0_MODF
      000000B8H.6 SFRSYM    DATA     BIT       IP_PSPI0
      000000B0H.6 SFRSYM    DATA     BIT       CS0CN0_CSEOS
      000000C8H   SFRSYM    DATA     BYTE      TMR2CN0
      00000091H   SFRSYM    DATA     BYTE      TMR3CN0
      000000F4H   SFRSYM    DATA     BYTE      SMB0ADR
      00000088H.4 SFRSYM    DATA     BIT       TCON_TR0
      000000B0H.5 SFRSYM    DATA     BIT       CS0CN0_CSINT
      000000ABH   SFRSYM    DATA     BYTE      CS0MX
      000000C8H.4 SFRSYM    DATA     BIT       TMR2CN0_TF2CEN
      00000088H.6 SFRSYM    DATA     BIT       TCON_TR1
      000000C2H   SFRSYM    DATA     BYTE      SMB0DAT
      00000099H   SFRSYM    DATA     BYTE      P0DRV
      000000DDH   SFRSYM    DATA     BYTE      CS0SS
      000000CDH   SFRSYM    DATA     BYTE      TMR2H
      000000A1H   SFRSYM    DATA     BYTE      SPI0CFG
      0000009BH   SFRSYM    DATA     BYTE      P1DRV
      00000095H   SFRSYM    DATA     BYTE      TMR3H
      0000009DH   SFRSYM    DATA     BYTE      P2DRV
      0000009AH   SFRSYM    DATA     BYTE      CRC0CNT
      000000CCH   SFRSYM    DATA     BYTE      TMR2L
      000000ACH   SFRSYM    DATA     BYTE      RTC0ADR
      000000F8H.7 SFRSYM    DATA     BIT       SPI0CN0_SPIF
      00000094H   SFRSYM    DATA     BYTE      TMR3L
      000000BBH   SFRSYM    DATA     BYTE      ADC0PWR
      000000A8H.7 SFRSYM    DATA     BIT       IE_EA
      000000ADH   SFRSYM    DATA     BYTE      RTC0DAT
      000000B0H.3 SFRSYM    DATA     BIT       CS0CN0_CSCMPEN
      000000B6H   SFRSYM    DATA     BYTE      FLSCL
      000000C8H.5 SFRSYM    DATA     BIT       TMR2CN0_TF2LEN
      000000F8H.6 SFRSYM    DATA     BIT       SPI0CN0_WCOL
      000000F8H.2 SFRSYM    DATA     BIT       SPI0CN0_NSSMD0
      000000D0H.7 SFRSYM    DATA     BIT       PSW_CY
      000000A3H   SFRSYM    DATA     BYTE      SPI0DAT
      000000F8H.3 SFRSYM    DATA     BIT       SPI0CN0_NSSMD1
      000000BDH   SFRSYM    DATA     WORD      ADC0
      0000008EH   SFRSYM    DATA     BYTE      TOFFH
      000000D0H   SFRSYM    DATA     BYTE      PSW
      000000DFH   SFRSYM    DATA     BYTE      PCA0PWM
      000000E2H   SFRSYM    DATA     BYTE      REVID
      0000008DH   SFRSYM    DATA     BYTE      TOFFL
      000000B7H   SFRSYM    DATA     BYTE      FLKEY
LX51 LINKER/LOCATER V4.66.30.0                                                        03/07/2020  14:55:04  PAGE 27


      000000BAH   SFRSYM    DATA     BYTE      ADC0AC

      01000ABAH   BLOCK     CODE     ---       LVL=0
      01000ABAH   BLOCK     CODE     NEAR LAB  LVL=1
      00000018H   SYMBOL    DATA     BYTE      SFRPAGE_save
      ---         BLOCKEND  ---      ---       LVL=1
      01000ABAH   LINE      CODE     ---       #28
      01000ABAH   LINE      CODE     ---       #31
      01000ABDH   LINE      CODE     ---       #32
      01000AC0H   LINE      CODE     ---       #33
      01000AC3H   LINE      CODE     ---       #34
      01000AC6H   LINE      CODE     ---       #35
      01000AC9H   LINE      CODE     ---       #36
      01000ACCH   LINE      CODE     ---       #37
      01000ACFH   LINE      CODE     ---       #38
      01000AD2H   LINE      CODE     ---       #39
      01000AD5H   LINE      CODE     ---       #40
      01000AD8H   LINE      CODE     ---       #41
      01000ADBH   LINE      CODE     ---       #42
      01000ADEH   LINE      CODE     ---       #43
      01000AE1H   LINE      CODE     ---       #44
      01000AE4H   LINE      CODE     ---       #45
      01000AE7H   LINE      CODE     ---       #47
      01000AEAH   LINE      CODE     ---       #49
      01000AEDH   LINE      CODE     ---       #53
      ---         BLOCKEND  ---      ---       LVL=0

      01000C8BH   BLOCK     CODE     ---       LVL=0
      01000C8BH   LINE      CODE     ---       #59
      01000C8BH   LINE      CODE     ---       #73
      01000C8EH   LINE      CODE     ---       #74
      01000C91H   LINE      CODE     ---       #75
      01000C93H   LINE      CODE     ---       #92
      ---         BLOCKEND  ---      ---       LVL=0

      01000027H   BLOCK     CODE     ---       LVL=0
      01000027H   LINE      CODE     ---       #97
      01000027H   LINE      CODE     ---       #103
      0100002AH   LINE      CODE     ---       #107
      ---         BLOCKEND  ---      ---       LVL=0

      01000C5BH   BLOCK     CODE     ---       LVL=0
      01000C5BH   LINE      CODE     ---       #113
      01000C5BH   LINE      CODE     ---       #156
      01000C5EH   LINE      CODE     ---       #159
      01000C61H   LINE      CODE     ---       #162
      01000C64H   LINE      CODE     ---       #165
      01000C67H   LINE      CODE     ---       #169
      ---         BLOCKEND  ---      ---       LVL=0

      01000C68H   BLOCK     CODE     ---       LVL=0
      01000C68H   LINE      CODE     ---       #174
      01000C68H   LINE      CODE     ---       #196
      01000C6BH   LINE      CODE     ---       #220
      01000C6EH   LINE      CODE     ---       #247
      01000C71H   LINE      CODE     ---       #250
      01000C74H   LINE      CODE     ---       #262
      ---         BLOCKEND  ---      ---       LVL=0

      01000CA6H   BLOCK     CODE     ---       LVL=0
      01000CA6H   LINE      CODE     ---       #267
      01000CA6H   LINE      CODE     ---       #275
LX51 LINKER/LOCATER V4.66.30.0                                                        03/07/2020  14:55:04  PAGE 28


      01000CA9H   LINE      CODE     ---       #292
      01000CACH   LINE      CODE     ---       #300
      ---         BLOCKEND  ---      ---       LVL=0

      01000CB4H   BLOCK     CODE     ---       LVL=0
      01000CB4H   LINE      CODE     ---       #306
      01000CB4H   LINE      CODE     ---       #320
      01000CB7H   LINE      CODE     ---       #325
      ---         BLOCKEND  ---      ---       LVL=0

      01000C94H   BLOCK     CODE     ---       LVL=0
      01000C94H   LINE      CODE     ---       #330
      01000C94H   LINE      CODE     ---       #339
      01000C97H   LINE      CODE     ---       #343
      01000C9CH   LINE      CODE     ---       #347
      ---         BLOCKEND  ---      ---       LVL=0

      01000C9DH   BLOCK     CODE     ---       LVL=0
      01000C9DH   LINE      CODE     ---       #352
      01000C9DH   LINE      CODE     ---       #360
      01000CA0H   LINE      CODE     ---       #362
      01000CA5H   LINE      CODE     ---       #366
      ---         BLOCKEND  ---      ---       LVL=0

      01000050H   BLOCK     CODE     ---       LVL=0
      01000050H   LINE      CODE     ---       #371
      01000050H   LINE      CODE     ---       #382
      ---         BLOCKEND  ---      ---       LVL=0

      01000C4DH   BLOCK     CODE     ---       LVL=0
      01000C4DH   BLOCK     CODE     NEAR LAB  LVL=1
      00000007H   SYMBOL    DATA     BYTE      TCON_save
      ---         BLOCKEND  ---      ---       LVL=1
      01000C4DH   LINE      CODE     ---       #388
      01000C4DH   LINE      CODE     ---       #391
      01000C4FH   LINE      CODE     ---       #393
      01000C52H   LINE      CODE     ---       #409
      01000C55H   LINE      CODE     ---       #410
      01000C58H   LINE      CODE     ---       #411
      01000C5AH   LINE      CODE     ---       #420
      ---         BLOCKEND  ---      ---       LVL=0

      01000BF0H   BLOCK     CODE     ---       LVL=0
      01000BF0H   BLOCK     CODE     NEAR LAB  LVL=1
      00000007H   SYMBOL    DATA     BYTE      TMR2CN0_TR2_save
      ---         BLOCKEND  ---      ---       LVL=1
      01000BF0H   LINE      CODE     ---       #425
      01000BF0H   LINE      CODE     ---       #428
      01000BF4H   LINE      CODE     ---       #430
      01000BF7H   LINE      CODE     ---       #440
      01000BFAH   LINE      CODE     ---       #447
      01000BFDH   LINE      CODE     ---       #454
      01000C00H   LINE      CODE     ---       #461
      01000C03H   LINE      CODE     ---       #468
      01000C06H   LINE      CODE     ---       #473
      01000C08H   LINE      CODE     ---       #477
      ---         BLOCKEND  ---      ---       LVL=0

      01000C81H   BLOCK     CODE     ---       LVL=0
      01000C81H   LINE      CODE     ---       #481
      01000C81H   LINE      CODE     ---       #497
      01000C84H   LINE      CODE     ---       #516
LX51 LINKER/LOCATER V4.66.30.0                                                        03/07/2020  14:55:04  PAGE 29


      01000C87H   LINE      CODE     ---       #524
      01000C8AH   LINE      CODE     ---       #528
      ---         BLOCKEND  ---      ---       LVL=0

      01000C38H   BLOCK     CODE     ---       LVL=0
      01000C38H   LINE      CODE     ---       #533
      01000C38H   LINE      CODE     ---       #539
      01000C3BH   LINE      CODE     ---       #552
      01000C3EH   LINE      CODE     ---       #572
      01000C41H   LINE      CODE     ---       #580
      01000C44H   LINE      CODE     ---       #587
      01000C46H   LINE      CODE     ---       #602
      01000C49H   LINE      CODE     ---       #603
      01000C4CH   LINE      CODE     ---       #608
      ---         BLOCKEND  ---      ---       LVL=0

      01000CB8H   BLOCK     CODE     ---       LVL=0
      01000CB8H   LINE      CODE     ---       #635
      01000CB8H   LINE      CODE     ---       #643
      01000CBBH   LINE      CODE     ---       #679
      ---         BLOCKEND  ---      ---       LVL=0

      01000CADH   BLOCK     CODE     ---       LVL=0
      01000CADH   LINE      CODE     ---       #698
      01000CADH   LINE      CODE     ---       #716
      01000CB0H   LINE      CODE     ---       #741
      01000CB3H   LINE      CODE     ---       #756
      ---         BLOCKEND  ---      ---       LVL=0

      01000B1DH   BLOCK     CODE     ---       LVL=0
      ---         BLOCKEND  ---      ---       LVL=0

      01000B23H   BLOCK     CODE     ---       LVL=0
      00000001H   SYMBOL    DATA     ---       buf
      00000004H   SYMBOL    DATA     INT       count
      0000003FH   SYMBOL    DATA     ---       ptr
      01000B23H   BLOCK     CODE     NEAR LAB  LVL=1
      0000003FH   SYMBOL    DATA     ---       ptr
      ---         BLOCKEND  ---      ---       LVL=1
      01000B23H   LINE      CODE     ---       #769
      01000B23H   LINE      CODE     ---       #770
      01000B23H   LINE      CODE     ---       #772
      01000B29H   LINE      CODE     ---       #773
      01000B29H   LINE      CODE     ---       #774
      01000B3CH   LINE      CODE     ---       #776
      01000B3FH   LINE      CODE     ---       #777
      01000B41H   LINE      CODE     ---       #778
      01000B4AH   LINE      CODE     ---       #780
      ---         BLOCKEND  ---      ---       LVL=0
      00000001H   SYMBOL    DATA     ---       buf
      00000004H   SYMBOL    DATA     INT       count_uart
      00000001H   SYMBOL    DATA     ---       buf
      00000006H   SYMBOL    DATA     INT       count_uart

      ---         MODULE    ---      ---       INTERRUPTS
      00000044H   PUBLIC    DATA     INT       count_timer
      00000042H   PUBLIC    DATA     WORD      count
      01000C21H   PUBLIC    CODE     ---       TIMER2_ISR
      01000AEEH   PUBLIC    CODE     ---       ADC0EOC_ISR
      01000662H   PUBLIC    CODE     ---       _timer_sleepus_select
      000000A2H   SFRSYM    DATA     BYTE      SPI0CKR
      00000080H   SFRSYM    DATA     BYTE      P0
LX51 LINKER/LOCATER V4.66.30.0                                                        03/07/2020  14:55:04  PAGE 30


      000000D0H.2 SFRSYM    DATA     BIT       PSW_OV
      000000B1H   SFRSYM    DATA     BYTE      XOSC0CN
      00000090H   SFRSYM    DATA     BYTE      P1
      000000A0H   SFRSYM    DATA     BYTE      P2
      00000097H   SFRSYM    DATA     BYTE      ADC0CF
      000000C0H.7 SFRSYM    DATA     BIT       SMB0CN0_MASTER
      000000F9H   SFRSYM    DATA     WORD      PCA0
      000000AEH   SFRSYM    DATA     BYTE      RTC0KEY
      000000E6H   SFRSYM    DATA     BYTE      EIE1
      000000C0H.1 SFRSYM    DATA     BIT       SMB0CN0_ACK
      000000E7H   SFRSYM    DATA     BYTE      EIE2
      0000008FH   SFRSYM    DATA     BYTE      PSCTL
      000000E4H   SFRSYM    DATA     BYTE      IT01CF
      000000B0H   SFRSYM    DATA     BYTE      CS0CN0
      000000C0H.6 SFRSYM    DATA     BIT       SMB0CN0_TXMODE
      000000E3H   SFRSYM    DATA     BYTE      DERIVID
      000000AFH   SFRSYM    DATA     BYTE      CS0MD1
      000000A7H   SFRSYM    DATA     BYTE      SFRPAGE
      000000F3H   SFRSYM    DATA     BYTE      CS0MD2
      000000A4H   SFRSYM    DATA     BYTE      P0MDOUT
      000000F3H   SFRSYM    DATA     BYTE      CS0MD3
      000000A5H   SFRSYM    DATA     BYTE      P1MDOUT
      000000E8H.5 SFRSYM    DATA     BIT       ADC0CN0_ADINT
      000000CBH   SFRSYM    DATA     BYTE      TMR2RLH
      000000A6H   SFRSYM    DATA     BYTE      P2MDOUT
      000000A8H   SFRSYM    DATA     BYTE      IE
      00000093H   SFRSYM    DATA     BYTE      TMR3RLH
      000000F6H   SFRSYM    DATA     BYTE      EIP1
      000000F7H   SFRSYM    DATA     BYTE      EIP2
      00000098H.2 SFRSYM    DATA     BIT       SCON0_RB8
      000000CAH   SFRSYM    DATA     BYTE      TMR2RLL
      000000FCH   SFRSYM    DATA     BYTE      PCA0CPH0
      00000092H   SFRSYM    DATA     BYTE      TMR3RLL
      000000EAH   SFRSYM    DATA     BYTE      PCA0CPH1
      00000098H.3 SFRSYM    DATA     BIT       SCON0_TB8
      000000B0H.7 SFRSYM    DATA     BIT       CS0CN0_CSEN
      000000F0H   SFRSYM    DATA     BIT       B_B0
      00000082H   SFRSYM    DATA     WORD      DP
      000000ECH   SFRSYM    DATA     BYTE      PCA0CPH2
      000000F0H.1 SFRSYM    DATA     BIT       B_B1
      000000C3H   SFRSYM    DATA     WORD      ADC0GT
      000000F0H.2 SFRSYM    DATA     BIT       B_B2
      000000FBH   SFRSYM    DATA     BYTE      PCA0CPL0
      000000F0H.3 SFRSYM    DATA     BIT       B_B3
      000000D9H   SFRSYM    DATA     BYTE      PCA0MD
      000000DAH   SFRSYM    DATA     BYTE      PCA0CPM0
      000000E9H   SFRSYM    DATA     BYTE      PCA0CPL1
      000000F0H.4 SFRSYM    DATA     BIT       B_B4
      000000DBH   SFRSYM    DATA     BYTE      PCA0CPM1
      000000EBH   SFRSYM    DATA     BYTE      PCA0CPL2
      000000F0H.5 SFRSYM    DATA     BIT       B_B5
      000000DCH   SFRSYM    DATA     BYTE      PCA0CPM2
      000000B8H   SFRSYM    DATA     BYTE      IP
      000000BCH   SFRSYM    DATA     BYTE      ADC0TK
      000000F0H.6 SFRSYM    DATA     BIT       B_B6
      000000C5H   SFRSYM    DATA     WORD      ADC0LT
      000000D6H   SFRSYM    DATA     BYTE      IREF0CN0
      00000098H.5 SFRSYM    DATA     BIT       SCON0_MCE
      000000F0H.7 SFRSYM    DATA     BIT       B_B7
      000000E1H   SFRSYM    DATA     BYTE      XBR0
      000000C1H   SFRSYM    DATA     BYTE      SMB0CF
      000000E2H   SFRSYM    DATA     BYTE      XBR1
LX51 LINKER/LOCATER V4.66.30.0                                                        03/07/2020  14:55:04  PAGE 31


      000000D2H   SFRSYM    DATA     BYTE      CS0SCAN0
      000000C0H.5 SFRSYM    DATA     BIT       SMB0CN0_STA
      000000E3H   SFRSYM    DATA     BYTE      XBR2
      000000D3H   SFRSYM    DATA     BYTE      CS0SCAN1
      00000096H   SFRSYM    DATA     BYTE      ADC0MX
      000000E0H   SFRSYM    DATA     BIT       ACC_ACC0
      000000D1H   SFRSYM    DATA     BYTE      REF0CN
      000000B2H   SFRSYM    DATA     BYTE      HFO0CN
      0000008EH   SFRSYM    DATA     BYTE      CKCON0
      000000E0H.1 SFRSYM    DATA     BIT       ACC_ACC1
      000000C9H   SFRSYM    DATA     BYTE      REG0CN
      00000085H   SFRSYM    DATA     BYTE      CRC0IN
      000000C8H.2 SFRSYM    DATA     BIT       TMR2CN0_TR2
      000000E0H.2 SFRSYM    DATA     BIT       ACC_ACC2
      000000E0H.3 SFRSYM    DATA     BIT       ACC_ACC3
      00000081H   SFRSYM    DATA     BYTE      SP
      0000009DH   SFRSYM    DATA     BYTE      CMP0MD
      000000E0H.4 SFRSYM    DATA     BIT       ACC_ACC4
      000000D8H   SFRSYM    DATA     BIT       PCA0CN0_CCF0
      000000E0H.5 SFRSYM    DATA     BIT       ACC_ACC5
      000000D8H.1 SFRSYM    DATA     BIT       PCA0CN0_CCF1
      000000E0H.6 SFRSYM    DATA     BIT       ACC_ACC6
      000000CCH   SFRSYM    DATA     WORD      TMR2
      000000D8H.2 SFRSYM    DATA     BIT       PCA0CN0_CCF2
      000000E0H.7 SFRSYM    DATA     BIT       ACC_ACC7
      00000094H   SFRSYM    DATA     WORD      TMR3
      000000B0H   SFRSYM    DATA     BIT       CS0CN0_CSCMPF
      000000C0H.3 SFRSYM    DATA     BIT       SMB0CN0_ACKRQ
      000000FFH   SFRSYM    DATA     BYTE      VDM0CN
      000000F1H   SFRSYM    DATA     BYTE      P0MDIN
      00000098H.4 SFRSYM    DATA     BIT       SCON0_REN
      000000F2H   SFRSYM    DATA     BYTE      P1MDIN
      000000FEH   SFRSYM    DATA     BYTE      CS0THH
      000000C0H.4 SFRSYM    DATA     BIT       SMB0CN0_STO
      000000B5H   SFRSYM    DATA     BYTE      PMU0CF
      000000C7H   SFRSYM    DATA     BYTE      P0MASK
      000000BFH   SFRSYM    DATA     BYTE      P1MASK
      000000FDH   SFRSYM    DATA     BYTE      CS0THL
      000000D0H.3 SFRSYM    DATA     BIT       PSW_RS0
      000000D8H.7 SFRSYM    DATA     BIT       PCA0CN0_CF
      000000F8H.4 SFRSYM    DATA     BIT       SPI0CN0_RXOVRN
      000000D0H.4 SFRSYM    DATA     BIT       PSW_RS1
      000000C8H   SFRSYM    DATA     BIT       TMR2CN0_T2XCLK0
      000000C8H.1 SFRSYM    DATA     BIT       TMR2CN0_T2XCLK1
      000000E8H.7 SFRSYM    DATA     BIT       ADC0CN0_ADEN
      00000089H   SFRSYM    DATA     BYTE      TMOD
      00000088H   SFRSYM    DATA     BYTE      TCON
      000000B5H   SFRSYM    DATA     BYTE      PMU0MD
      000000CEH   SFRSYM    DATA     BYTE      PMU0FL
      0000009CH   SFRSYM    DATA     BYTE      CRC0FLIP
      000000D0H   SFRSYM    DATA     BIT       PSW_PARITY
      000000A8H.4 SFRSYM    DATA     BIT       IE_ES0
      0000009FH   SFRSYM    DATA     BYTE      CMP0MX
      000000A8H.1 SFRSYM    DATA     BIT       IE_ET0
      000000A8H.3 SFRSYM    DATA     BIT       IE_ET1
      000000D4H   SFRSYM    DATA     BYTE      P0SKIP
      000000A8H.5 SFRSYM    DATA     BIT       IE_ET2
      000000D5H   SFRSYM    DATA     BYTE      P1SKIP
      000000E8H   SFRSYM    DATA     BYTE      ADC0CN0
      000000A8H   SFRSYM    DATA     BIT       IE_EX0
      000000D8H.6 SFRSYM    DATA     BIT       PCA0CN0_CR
      000000A8H.2 SFRSYM    DATA     BIT       IE_EX1
LX51 LINKER/LOCATER V4.66.30.0                                                        03/07/2020  14:55:04  PAGE 32


      00000098H.7 SFRSYM    DATA     BIT       SCON0_SMODE
      000000A9H   SFRSYM    DATA     BYTE      CLKSEL
      000000F8H   SFRSYM    DATA     BIT       SPI0CN0_SPIEN
      000000F0H   SFRSYM    DATA     BYTE      B
      000000BEH   SFRSYM    DATA     BYTE      ADC0H
      0000009EH   SFRSYM    DATA     BYTE      CRC0AUTO
      000000B0H.4 SFRSYM    DATA     BIT       CS0CN0_CSBUSY
      000000E8H.6 SFRSYM    DATA     BIT       ADC0CN0_ADBMEN
      000000CAH   SFRSYM    DATA     WORD      TMR2RL
      000000BDH   SFRSYM    DATA     BYTE      ADC0L
      00000092H   SFRSYM    DATA     WORD      TMR3RL
      000000D8H   SFRSYM    DATA     BYTE      PCA0CN0
      000000E0H   SFRSYM    DATA     BYTE      ACC
      000000FBH   SFRSYM    DATA     WORD      PCA0CP0
      000000E9H   SFRSYM    DATA     WORD      PCA0CP1
      000000EBH   SFRSYM    DATA     WORD      PCA0CP2
      00000084H   SFRSYM    DATA     BYTE      CRC0CN0
      0000008CH   SFRSYM    DATA     BYTE      TH0
      000000B8H.4 SFRSYM    DATA     BIT       IP_PS0
      0000008DH   SFRSYM    DATA     BYTE      TH1
      000000FAH   SFRSYM    DATA     BYTE      PCA0H
      000000B8H.1 SFRSYM    DATA     BIT       IP_PT0
      000000B8H.3 SFRSYM    DATA     BIT       IP_PT1
      000000C0H.2 SFRSYM    DATA     BIT       SMB0CN0_ARBLOST
      000000B8H.5 SFRSYM    DATA     BIT       IP_PT2
      0000008AH   SFRSYM    DATA     BYTE      TL0
      000000AAH   SFRSYM    DATA     BYTE      CS0CF
      000000F8H.1 SFRSYM    DATA     BIT       SPI0CN0_TXBMT
      000000D0H.5 SFRSYM    DATA     BIT       PSW_F0
      000000A8H.6 SFRSYM    DATA     BIT       IE_ESPI0
      0000008BH   SFRSYM    DATA     BYTE      TL1
      000000F9H   SFRSYM    DATA     BYTE      PCA0L
      000000C0H   SFRSYM    DATA     BIT       SMB0CN0_SI
      000000D0H.1 SFRSYM    DATA     BIT       PSW_F1
      00000080H   SFRSYM    DATA     BIT       P0_B0
      000000B8H   SFRSYM    DATA     BIT       IP_PX0
      00000090H   SFRSYM    DATA     BIT       P1_B0
      00000080H.1 SFRSYM    DATA     BIT       P0_B1
      000000B8H.2 SFRSYM    DATA     BIT       IP_PX1
      000000EEH   SFRSYM    DATA     BYTE      CS0DH
      0000009BH   SFRSYM    DATA     BYTE      CMP0CN0
      00000088H.1 SFRSYM    DATA     BIT       TCON_IE0
      00000090H.1 SFRSYM    DATA     BIT       P1_B1
      00000080H.2 SFRSYM    DATA     BIT       P0_B2
      00000088H.3 SFRSYM    DATA     BIT       TCON_IE1
      00000090H.2 SFRSYM    DATA     BIT       P1_B2
      00000080H.3 SFRSYM    DATA     BIT       P0_B3
      000000C0H   SFRSYM    DATA     BYTE      SMB0CN0
      00000090H.3 SFRSYM    DATA     BIT       P1_B3
      00000080H.4 SFRSYM    DATA     BIT       P0_B4
      00000090H.4 SFRSYM    DATA     BIT       P1_B4
      00000080H.5 SFRSYM    DATA     BIT       P0_B5
      000000EDH   SFRSYM    DATA     BYTE      CS0DL
      00000090H.5 SFRSYM    DATA     BIT       P1_B5
      00000080H.6 SFRSYM    DATA     BIT       P0_B6
      00000090H.6 SFRSYM    DATA     BIT       P1_B6
      00000080H.7 SFRSYM    DATA     BIT       P0_B7
      00000090H.7 SFRSYM    DATA     BIT       P1_B7
      000000A0H.7 SFRSYM    DATA     BIT       P2_B7
      00000083H   SFRSYM    DATA     BYTE      DPH
      000000C4H   SFRSYM    DATA     BYTE      ADC0GTH
      000000C8H.7 SFRSYM    DATA     BIT       TMR2CN0_TF2H
LX51 LINKER/LOCATER V4.66.30.0                                                        03/07/2020  14:55:04  PAGE 33


      000000C8H.3 SFRSYM    DATA     BIT       TMR2CN0_T2SPLIT
      000000D0H.6 SFRSYM    DATA     BIT       PSW_AC
      000000F8H   SFRSYM    DATA     BYTE      SPI0CN0
      000000B3H   SFRSYM    DATA     BYTE      HFO0CAL
      000000DEH   SFRSYM    DATA     BYTE      CS0SE
      00000088H.5 SFRSYM    DATA     BIT       TCON_TF0
      00000098H   SFRSYM    DATA     BIT       SCON0_RI
      00000082H   SFRSYM    DATA     BYTE      DPL
      00000088H.7 SFRSYM    DATA     BIT       TCON_TF1
      00000099H   SFRSYM    DATA     BYTE      SBUF0
      00000087H   SFRSYM    DATA     BYTE      PCON0
      000000B9H   SFRSYM    DATA     BYTE      IREF0CF
      000000C3H   SFRSYM    DATA     BYTE      ADC0GTL
      000000C8H.6 SFRSYM    DATA     BIT       TMR2CN0_TF2L
      00000098H.1 SFRSYM    DATA     BIT       SCON0_TI
      000000E8H   SFRSYM    DATA     BIT       ADC0CN0_ADCM0
      000000C6H   SFRSYM    DATA     BYTE      ADC0LTH
      00000088H   SFRSYM    DATA     BIT       TCON_IT0
      000000B0H.1 SFRSYM    DATA     BIT       CS0CN0_CSPME
      000000E8H.1 SFRSYM    DATA     BIT       ADC0CN0_ADCM1
      000000EFH   SFRSYM    DATA     BYTE      RSTSRC
      000000D7H   SFRSYM    DATA     BYTE      P0MAT
      00000086H   SFRSYM    DATA     BYTE      CRC0DAT
      00000088H.2 SFRSYM    DATA     BIT       TCON_IT1
      000000E8H.2 SFRSYM    DATA     BIT       ADC0CN0_ADCM2
      00000098H   SFRSYM    DATA     BYTE      SCON0
      000000CFH   SFRSYM    DATA     BYTE      P1MAT
      000000DEH   SFRSYM    DATA     BYTE      CS0PM
      000000E8H.3 SFRSYM    DATA     BIT       ADC0CN0_ADWINT
      000000E8H.4 SFRSYM    DATA     BIT       ADC0CN0_ADBUSY
      000000F5H   SFRSYM    DATA     BYTE      SMB0ADM
      000000C5H   SFRSYM    DATA     BYTE      ADC0LTL
      000000F8H.5 SFRSYM    DATA     BIT       SPI0CN0_MODF
      000000B8H.6 SFRSYM    DATA     BIT       IP_PSPI0
      000000B0H.6 SFRSYM    DATA     BIT       CS0CN0_CSEOS
      000000C8H   SFRSYM    DATA     BYTE      TMR2CN0
      00000091H   SFRSYM    DATA     BYTE      TMR3CN0
      000000F4H   SFRSYM    DATA     BYTE      SMB0ADR
      00000088H.4 SFRSYM    DATA     BIT       TCON_TR0
      000000B0H.5 SFRSYM    DATA     BIT       CS0CN0_CSINT
      000000ABH   SFRSYM    DATA     BYTE      CS0MX
      000000C8H.4 SFRSYM    DATA     BIT       TMR2CN0_TF2CEN
      00000088H.6 SFRSYM    DATA     BIT       TCON_TR1
      000000C2H   SFRSYM    DATA     BYTE      SMB0DAT
      00000099H   SFRSYM    DATA     BYTE      P0DRV
      000000DDH   SFRSYM    DATA     BYTE      CS0SS
      000000CDH   SFRSYM    DATA     BYTE      TMR2H
      000000A1H   SFRSYM    DATA     BYTE      SPI0CFG
      0000009BH   SFRSYM    DATA     BYTE      P1DRV
      00000095H   SFRSYM    DATA     BYTE      TMR3H
      0000009DH   SFRSYM    DATA     BYTE      P2DRV
      0000009AH   SFRSYM    DATA     BYTE      CRC0CNT
      000000CCH   SFRSYM    DATA     BYTE      TMR2L
      000000ACH   SFRSYM    DATA     BYTE      RTC0ADR
      000000F8H.7 SFRSYM    DATA     BIT       SPI0CN0_SPIF
      00000094H   SFRSYM    DATA     BYTE      TMR3L
      000000BBH   SFRSYM    DATA     BYTE      ADC0PWR
      000000A8H.7 SFRSYM    DATA     BIT       IE_EA
      000000ADH   SFRSYM    DATA     BYTE      RTC0DAT
      000000B0H.3 SFRSYM    DATA     BIT       CS0CN0_CSCMPEN
      000000B6H   SFRSYM    DATA     BYTE      FLSCL
      000000C8H.5 SFRSYM    DATA     BIT       TMR2CN0_TF2LEN
LX51 LINKER/LOCATER V4.66.30.0                                                        03/07/2020  14:55:04  PAGE 34


      000000F8H.6 SFRSYM    DATA     BIT       SPI0CN0_WCOL
      000000F8H.2 SFRSYM    DATA     BIT       SPI0CN0_NSSMD0
      000000D0H.7 SFRSYM    DATA     BIT       PSW_CY
      000000A3H   SFRSYM    DATA     BYTE      SPI0DAT
      000000F8H.3 SFRSYM    DATA     BIT       SPI0CN0_NSSMD1
      000000BDH   SFRSYM    DATA     WORD      ADC0
      0000008EH   SFRSYM    DATA     BYTE      TOFFH
      000000D0H   SFRSYM    DATA     BYTE      PSW
      000000DFH   SFRSYM    DATA     BYTE      PCA0PWM
      000000E2H   SFRSYM    DATA     BYTE      REVID
      0000008DH   SFRSYM    DATA     BYTE      TOFFL
      000000B7H   SFRSYM    DATA     BYTE      FLKEY
      000000BAH   SFRSYM    DATA     BYTE      ADC0AC

      01000662H   BLOCK     CODE     ---       LVL=0
      00000006H   SYMBOL    DATA     INT       para
      0000003AH   SYMBOL    DATA     INT       t
      01000666H   BLOCK     CODE     NEAR LAB  LVL=1
      0000003CH   SYMBOL    DATA     BYTE      TMR2CN0_TR2_save
      0000003DH   SYMBOL    DATA     BYTE      TMER2H_value
      0000003EH   SYMBOL    DATA     BYTE      TMER2L_value
      ---         BLOCKEND  ---      ---       LVL=1
      01000662H   LINE      CODE     ---       #41
      01000666H   LINE      CODE     ---       #42
      01000666H   LINE      CODE     ---       #43
      0100066CH   LINE      CODE     ---       #46
      010006A4H   LINE      CODE     ---       #47
      010006A4H   LINE      CODE     ---       #48
      010006A7H   LINE      CODE     ---       #49
      010006AAH   LINE      CODE     ---       #50
      010006ACH   LINE      CODE     ---       #51
      010006ACH   LINE      CODE     ---       #52
      010006AFH   LINE      CODE     ---       #53
      010006B2H   LINE      CODE     ---       #54
      010006B4H   LINE      CODE     ---       #55
      010006B4H   LINE      CODE     ---       #56
      010006B7H   LINE      CODE     ---       #57
      010006BAH   LINE      CODE     ---       #58
      010006BCH   LINE      CODE     ---       #59
      010006BCH   LINE      CODE     ---       #60
      010006BFH   LINE      CODE     ---       #61
      010006C2H   LINE      CODE     ---       #62
      010006C4H   LINE      CODE     ---       #63
      010006C4H   LINE      CODE     ---       #64
      010006C7H   LINE      CODE     ---       #65
      010006CAH   LINE      CODE     ---       #66
      010006CCH   LINE      CODE     ---       #67
      010006CCH   LINE      CODE     ---       #68
      010006CFH   LINE      CODE     ---       #69
      010006D2H   LINE      CODE     ---       #70
      010006D4H   LINE      CODE     ---       #71
      010006D4H   LINE      CODE     ---       #72
      010006D7H   LINE      CODE     ---       #73
      010006DAH   LINE      CODE     ---       #74
      010006DCH   LINE      CODE     ---       #75
      010006DCH   LINE      CODE     ---       #76
      010006DFH   LINE      CODE     ---       #77
      010006E2H   LINE      CODE     ---       #78
      010006E4H   LINE      CODE     ---       #79
      010006E4H   LINE      CODE     ---       #80
      010006E7H   LINE      CODE     ---       #81
      010006EAH   LINE      CODE     ---       #82
LX51 LINKER/LOCATER V4.66.30.0                                                        03/07/2020  14:55:04  PAGE 35


      010006ECH   LINE      CODE     ---       #83
      010006ECH   LINE      CODE     ---       #84
      010006EFH   LINE      CODE     ---       #85
      010006F2H   LINE      CODE     ---       #86
      010006F4H   LINE      CODE     ---       #87
      010006F4H   LINE      CODE     ---       #88
      010006F7H   LINE      CODE     ---       #89
      010006FAH   LINE      CODE     ---       #90
      010006FCH   LINE      CODE     ---       #91
      010006FCH   LINE      CODE     ---       #92
      010006FFH   LINE      CODE     ---       #93
      01000702H   LINE      CODE     ---       #94
      01000704H   LINE      CODE     ---       #95
      01000704H   LINE      CODE     ---       #96
      01000707H   LINE      CODE     ---       #97
      0100070AH   LINE      CODE     ---       #98
      0100070CH   LINE      CODE     ---       #99
      0100070CH   LINE      CODE     ---       #100
      0100070FH   LINE      CODE     ---       #101
      01000712H   LINE      CODE     ---       #102
      01000714H   LINE      CODE     ---       #103
      01000714H   LINE      CODE     ---       #104
      01000721H   LINE      CODE     ---       #105
      01000721H   LINE      CODE     ---       #107
      01000724H   LINE      CODE     ---       #108
      01000727H   LINE      CODE     ---       #109
      0100072AH   LINE      CODE     ---       #111
      0100072DH   LINE      CODE     ---       #112
      01000730H   LINE      CODE     ---       #113
      01000733H   LINE      CODE     ---       #114
      01000737H   LINE      CODE     ---       #115
      0100073AH   LINE      CODE     ---       #116
      0100073FH   LINE      CODE     ---       #117
      0100073FH   LINE      CODE     ---       #118
      01000750H   LINE      CODE     ---       #119
      01000755H   LINE      CODE     ---       #120
      01000755H   LINE      CODE     ---       #121
      01000755H   LINE      CODE     ---       #122
      01000755H   LINE      CODE     ---       #123
      01000758H   LINE      CODE     ---       #124
      ---         BLOCKEND  ---      ---       LVL=0
      00000007H   SYMBOL    DATA     BYTE      us

      01000AEEH   BLOCK     CODE     ---       LVL=0
      01000AF9H   BLOCK     CODE     NEAR LAB  LVL=1
      00000008H   SYMBOL    DATA     DWORD     result
      ---         BLOCKEND  ---      ---       LVL=1
      01000AEEH   LINE      CODE     ---       #180
      01000AF9H   LINE      CODE     ---       #182
      01000B05H   LINE      CODE     ---       #185
      01000B07H   LINE      CODE     ---       #187
      01000B14H   LINE      CODE     ---       #202
      ---         BLOCKEND  ---      ---       LVL=0

      01000C21H   BLOCK     CODE     ---       LVL=0
      01000C21H   LINE      CODE     ---       #203
      01000C23H   LINE      CODE     ---       #205
      01000C25H   LINE      CODE     ---       #206
      01000C2DH   LINE      CODE     ---       #208
      01000C35H   LINE      CODE     ---       #209
      ---         BLOCKEND  ---      ---       LVL=0

LX51 LINKER/LOCATER V4.66.30.0                                                        03/07/2020  14:55:04  PAGE 36


      ---         MODULE    ---      ---       ?C_STARTUP
      01000000H   PUBLIC    CODE     NEAR LAB  ?C_STARTUP
      000000E0H   SFRSYM    DATA     BYTE      ACC
      000000F0H   SFRSYM    DATA     BYTE      B
      00000083H   SFRSYM    DATA     BYTE      DPH
      00000082H   SFRSYM    DATA     BYTE      DPL
      000000A0H   SFRSYM    DATA     BYTE      PPAGE_SFR
      00000081H   SFRSYM    DATA     BYTE      SP
      00000000H   SYMBOL    NUMBER   ---       IBPSTACK
      00000100H   SYMBOL    NUMBER   ---       IBPSTACKTOP
      00000080H   SYMBOL    NUMBER   ---       IDATALEN
      01000C78H   SYMBOL    CODE     NEAR LAB  IDATALOOP
      00000000H   SYMBOL    NUMBER   ---       PBPSTACK
      00000100H   SYMBOL    NUMBER   ---       PBPSTACKTOP
      00000000H   SYMBOL    NUMBER   ---       PDATALEN
      00000000H   SYMBOL    NUMBER   ---       PDATASTART
      00000000H   SYMBOL    NUMBER   ---       PPAGE
      00000000H   SYMBOL    NUMBER   ---       PPAGEENABLE
      01000C75H   SYMBOL    CODE     NEAR LAB  STARTUP1
      00000000H   SYMBOL    NUMBER   ---       XBPSTACK
      00010000H   SYMBOL    NUMBER   ---       XBPSTACKTOP
      00000000H   SYMBOL    NUMBER   ---       XDATALEN
      00000000H   SYMBOL    NUMBER   ---       XDATASTART

      01000000H   BLOCK     CODE     NEAR LAB  LVL=0
      01000000H   LINE      CODE     ---       #126
      ---         BLOCKEND  ---      ---       LVL=0

      01000C75H   BLOCK     CODE     NEAR LAB  LVL=0
      01000C75H   LINE      CODE     ---       #138
      01000C77H   LINE      CODE     ---       #139
      01000C78H   LINE      CODE     ---       #140
      01000C79H   LINE      CODE     ---       #141
      01000C7BH   LINE      CODE     ---       #190
      01000C7EH   LINE      CODE     ---       #201
      ---         BLOCKEND  ---      ---       LVL=0

      ---         MODULE    ---      ---       SMARTCLOCK
      00000046H   PUBLIC    DATA     BYTE      RTC0CN0_Local
      000000A2H   SFRSYM    DATA     BYTE      SPI0CKR
      00000080H   SFRSYM    DATA     BYTE      P0
      000000D0H.2 SFRSYM    DATA     BIT       PSW_OV
      000000B1H   SFRSYM    DATA     BYTE      XOSC0CN
      00000090H   SFRSYM    DATA     BYTE      P1
      000000A0H   SFRSYM    DATA     BYTE      P2
      00000097H   SFRSYM    DATA     BYTE      ADC0CF
      000000C0H.7 SFRSYM    DATA     BIT       SMB0CN0_MASTER
      000000F9H   SFRSYM    DATA     WORD      PCA0
      000000AEH   SFRSYM    DATA     BYTE      RTC0KEY
      000000E6H   SFRSYM    DATA     BYTE      EIE1
      000000C0H.1 SFRSYM    DATA     BIT       SMB0CN0_ACK
      000000E7H   SFRSYM    DATA     BYTE      EIE2
      0000008FH   SFRSYM    DATA     BYTE      PSCTL
      000000E4H   SFRSYM    DATA     BYTE      IT01CF
      000000B0H   SFRSYM    DATA     BYTE      CS0CN0
      000000C0H.6 SFRSYM    DATA     BIT       SMB0CN0_TXMODE
      000000E3H   SFRSYM    DATA     BYTE      DERIVID
      000000AFH   SFRSYM    DATA     BYTE      CS0MD1
      000000A7H   SFRSYM    DATA     BYTE      SFRPAGE
      000000F3H   SFRSYM    DATA     BYTE      CS0MD2
      000000A4H   SFRSYM    DATA     BYTE      P0MDOUT
      000000F3H   SFRSYM    DATA     BYTE      CS0MD3
LX51 LINKER/LOCATER V4.66.30.0                                                        03/07/2020  14:55:04  PAGE 37


      000000A5H   SFRSYM    DATA     BYTE      P1MDOUT
      000000E8H.5 SFRSYM    DATA     BIT       ADC0CN0_ADINT
      000000CBH   SFRSYM    DATA     BYTE      TMR2RLH
      000000A6H   SFRSYM    DATA     BYTE      P2MDOUT
      000000A8H   SFRSYM    DATA     BYTE      IE
      00000093H   SFRSYM    DATA     BYTE      TMR3RLH
      000000F6H   SFRSYM    DATA     BYTE      EIP1
      000000F7H   SFRSYM    DATA     BYTE      EIP2
      00000098H.2 SFRSYM    DATA     BIT       SCON0_RB8
      000000CAH   SFRSYM    DATA     BYTE      TMR2RLL
      000000FCH   SFRSYM    DATA     BYTE      PCA0CPH0
      00000092H   SFRSYM    DATA     BYTE      TMR3RLL
      000000EAH   SFRSYM    DATA     BYTE      PCA0CPH1
      00000098H.3 SFRSYM    DATA     BIT       SCON0_TB8
      000000B0H.7 SFRSYM    DATA     BIT       CS0CN0_CSEN
      000000F0H   SFRSYM    DATA     BIT       B_B0
      00000082H   SFRSYM    DATA     WORD      DP
      000000ECH   SFRSYM    DATA     BYTE      PCA0CPH2
      000000F0H.1 SFRSYM    DATA     BIT       B_B1
      000000C3H   SFRSYM    DATA     WORD      ADC0GT
      000000F0H.2 SFRSYM    DATA     BIT       B_B2
      000000FBH   SFRSYM    DATA     BYTE      PCA0CPL0
      000000F0H.3 SFRSYM    DATA     BIT       B_B3
      000000D9H   SFRSYM    DATA     BYTE      PCA0MD
      000000DAH   SFRSYM    DATA     BYTE      PCA0CPM0
      000000E9H   SFRSYM    DATA     BYTE      PCA0CPL1
      000000F0H.4 SFRSYM    DATA     BIT       B_B4
      000000DBH   SFRSYM    DATA     BYTE      PCA0CPM1
      000000EBH   SFRSYM    DATA     BYTE      PCA0CPL2
      000000F0H.5 SFRSYM    DATA     BIT       B_B5
      000000DCH   SFRSYM    DATA     BYTE      PCA0CPM2
      000000B8H   SFRSYM    DATA     BYTE      IP
      000000BCH   SFRSYM    DATA     BYTE      ADC0TK
      000000F0H.6 SFRSYM    DATA     BIT       B_B6
      000000C5H   SFRSYM    DATA     WORD      ADC0LT
      000000D6H   SFRSYM    DATA     BYTE      IREF0CN0
      00000098H.5 SFRSYM    DATA     BIT       SCON0_MCE
      000000F0H.7 SFRSYM    DATA     BIT       B_B7
      000000E1H   SFRSYM    DATA     BYTE      XBR0
      000000C1H   SFRSYM    DATA     BYTE      SMB0CF
      000000E2H   SFRSYM    DATA     BYTE      XBR1
      000000D2H   SFRSYM    DATA     BYTE      CS0SCAN0
      000000C0H.5 SFRSYM    DATA     BIT       SMB0CN0_STA
      000000E3H   SFRSYM    DATA     BYTE      XBR2
      000000D3H   SFRSYM    DATA     BYTE      CS0SCAN1
      00000096H   SFRSYM    DATA     BYTE      ADC0MX
      000000E0H   SFRSYM    DATA     BIT       ACC_ACC0
      000000D1H   SFRSYM    DATA     BYTE      REF0CN
      000000B2H   SFRSYM    DATA     BYTE      HFO0CN
      0000008EH   SFRSYM    DATA     BYTE      CKCON0
      000000E0H.1 SFRSYM    DATA     BIT       ACC_ACC1
      000000C9H   SFRSYM    DATA     BYTE      REG0CN
      00000085H   SFRSYM    DATA     BYTE      CRC0IN
      000000C8H.2 SFRSYM    DATA     BIT       TMR2CN0_TR2
      000000E0H.2 SFRSYM    DATA     BIT       ACC_ACC2
      000000E0H.3 SFRSYM    DATA     BIT       ACC_ACC3
      00000081H   SFRSYM    DATA     BYTE      SP
      0000009DH   SFRSYM    DATA     BYTE      CMP0MD
      000000E0H.4 SFRSYM    DATA     BIT       ACC_ACC4
      000000D8H   SFRSYM    DATA     BIT       PCA0CN0_CCF0
      000000E0H.5 SFRSYM    DATA     BIT       ACC_ACC5
      000000D8H.1 SFRSYM    DATA     BIT       PCA0CN0_CCF1
LX51 LINKER/LOCATER V4.66.30.0                                                        03/07/2020  14:55:04  PAGE 38


      000000E0H.6 SFRSYM    DATA     BIT       ACC_ACC6
      000000CCH   SFRSYM    DATA     WORD      TMR2
      000000D8H.2 SFRSYM    DATA     BIT       PCA0CN0_CCF2
      000000E0H.7 SFRSYM    DATA     BIT       ACC_ACC7
      00000094H   SFRSYM    DATA     WORD      TMR3
      000000B0H   SFRSYM    DATA     BIT       CS0CN0_CSCMPF
      000000C0H.3 SFRSYM    DATA     BIT       SMB0CN0_ACKRQ
      000000FFH   SFRSYM    DATA     BYTE      VDM0CN
      000000F1H   SFRSYM    DATA     BYTE      P0MDIN
      00000098H.4 SFRSYM    DATA     BIT       SCON0_REN
      000000F2H   SFRSYM    DATA     BYTE      P1MDIN
      000000FEH   SFRSYM    DATA     BYTE      CS0THH
      000000C0H.4 SFRSYM    DATA     BIT       SMB0CN0_STO
      000000B5H   SFRSYM    DATA     BYTE      PMU0CF
      000000C7H   SFRSYM    DATA     BYTE      P0MASK
      000000BFH   SFRSYM    DATA     BYTE      P1MASK
      000000FDH   SFRSYM    DATA     BYTE      CS0THL
      000000D0H.3 SFRSYM    DATA     BIT       PSW_RS0
      000000D8H.7 SFRSYM    DATA     BIT       PCA0CN0_CF
      000000F8H.4 SFRSYM    DATA     BIT       SPI0CN0_RXOVRN
      000000D0H.4 SFRSYM    DATA     BIT       PSW_RS1
      000000C8H   SFRSYM    DATA     BIT       TMR2CN0_T2XCLK0
      000000C8H.1 SFRSYM    DATA     BIT       TMR2CN0_T2XCLK1
      000000E8H.7 SFRSYM    DATA     BIT       ADC0CN0_ADEN
      00000089H   SFRSYM    DATA     BYTE      TMOD
      00000088H   SFRSYM    DATA     BYTE      TCON
      000000B5H   SFRSYM    DATA     BYTE      PMU0MD
      000000CEH   SFRSYM    DATA     BYTE      PMU0FL
      0000009CH   SFRSYM    DATA     BYTE      CRC0FLIP
      000000D0H   SFRSYM    DATA     BIT       PSW_PARITY
      000000A8H.4 SFRSYM    DATA     BIT       IE_ES0
      0000009FH   SFRSYM    DATA     BYTE      CMP0MX
      000000A8H.1 SFRSYM    DATA     BIT       IE_ET0
      000000A8H.3 SFRSYM    DATA     BIT       IE_ET1
      000000D4H   SFRSYM    DATA     BYTE      P0SKIP
      000000A8H.5 SFRSYM    DATA     BIT       IE_ET2
      000000D5H   SFRSYM    DATA     BYTE      P1SKIP
      000000E8H   SFRSYM    DATA     BYTE      ADC0CN0
      000000A8H   SFRSYM    DATA     BIT       IE_EX0
      000000D8H.6 SFRSYM    DATA     BIT       PCA0CN0_CR
      000000A8H.2 SFRSYM    DATA     BIT       IE_EX1
      00000098H.7 SFRSYM    DATA     BIT       SCON0_SMODE
      000000A9H   SFRSYM    DATA     BYTE      CLKSEL
      000000F8H   SFRSYM    DATA     BIT       SPI0CN0_SPIEN
      000000F0H   SFRSYM    DATA     BYTE      B
      000000BEH   SFRSYM    DATA     BYTE      ADC0H
      0000009EH   SFRSYM    DATA     BYTE      CRC0AUTO
      000000B0H.4 SFRSYM    DATA     BIT       CS0CN0_CSBUSY
      000000E8H.6 SFRSYM    DATA     BIT       ADC0CN0_ADBMEN
      000000CAH   SFRSYM    DATA     WORD      TMR2RL
      000000BDH   SFRSYM    DATA     BYTE      ADC0L
      00000092H   SFRSYM    DATA     WORD      TMR3RL
      000000D8H   SFRSYM    DATA     BYTE      PCA0CN0
      000000E0H   SFRSYM    DATA     BYTE      ACC
      000000FBH   SFRSYM    DATA     WORD      PCA0CP0
      000000E9H   SFRSYM    DATA     WORD      PCA0CP1
      000000EBH   SFRSYM    DATA     WORD      PCA0CP2
      00000084H   SFRSYM    DATA     BYTE      CRC0CN0
      0000008CH   SFRSYM    DATA     BYTE      TH0
      000000B8H.4 SFRSYM    DATA     BIT       IP_PS0
      0000008DH   SFRSYM    DATA     BYTE      TH1
      000000FAH   SFRSYM    DATA     BYTE      PCA0H
LX51 LINKER/LOCATER V4.66.30.0                                                        03/07/2020  14:55:04  PAGE 39


      000000B8H.1 SFRSYM    DATA     BIT       IP_PT0
      000000B8H.3 SFRSYM    DATA     BIT       IP_PT1
      000000C0H.2 SFRSYM    DATA     BIT       SMB0CN0_ARBLOST
      000000B8H.5 SFRSYM    DATA     BIT       IP_PT2
      0000008AH   SFRSYM    DATA     BYTE      TL0
      000000AAH   SFRSYM    DATA     BYTE      CS0CF
      000000F8H.1 SFRSYM    DATA     BIT       SPI0CN0_TXBMT
      000000D0H.5 SFRSYM    DATA     BIT       PSW_F0
      000000A8H.6 SFRSYM    DATA     BIT       IE_ESPI0
      0000008BH   SFRSYM    DATA     BYTE      TL1
      000000F9H   SFRSYM    DATA     BYTE      PCA0L
      000000C0H   SFRSYM    DATA     BIT       SMB0CN0_SI
      000000D0H.1 SFRSYM    DATA     BIT       PSW_F1
      00000080H   SFRSYM    DATA     BIT       P0_B0
      000000B8H   SFRSYM    DATA     BIT       IP_PX0
      00000090H   SFRSYM    DATA     BIT       P1_B0
      00000080H.1 SFRSYM    DATA     BIT       P0_B1
      000000B8H.2 SFRSYM    DATA     BIT       IP_PX1
      000000EEH   SFRSYM    DATA     BYTE      CS0DH
      0000009BH   SFRSYM    DATA     BYTE      CMP0CN0
      00000088H.1 SFRSYM    DATA     BIT       TCON_IE0
      00000090H.1 SFRSYM    DATA     BIT       P1_B1
      00000080H.2 SFRSYM    DATA     BIT       P0_B2
      00000088H.3 SFRSYM    DATA     BIT       TCON_IE1
      00000090H.2 SFRSYM    DATA     BIT       P1_B2
      00000080H.3 SFRSYM    DATA     BIT       P0_B3
      000000C0H   SFRSYM    DATA     BYTE      SMB0CN0
      00000090H.3 SFRSYM    DATA     BIT       P1_B3
      00000080H.4 SFRSYM    DATA     BIT       P0_B4
      00000090H.4 SFRSYM    DATA     BIT       P1_B4
      00000080H.5 SFRSYM    DATA     BIT       P0_B5
      000000EDH   SFRSYM    DATA     BYTE      CS0DL
      00000090H.5 SFRSYM    DATA     BIT       P1_B5
      00000080H.6 SFRSYM    DATA     BIT       P0_B6
      00000090H.6 SFRSYM    DATA     BIT       P1_B6
      00000080H.7 SFRSYM    DATA     BIT       P0_B7
      00000090H.7 SFRSYM    DATA     BIT       P1_B7
      000000A0H.7 SFRSYM    DATA     BIT       P2_B7
      00000083H   SFRSYM    DATA     BYTE      DPH
      000000C4H   SFRSYM    DATA     BYTE      ADC0GTH
      000000C8H.7 SFRSYM    DATA     BIT       TMR2CN0_TF2H
      000000C8H.3 SFRSYM    DATA     BIT       TMR2CN0_T2SPLIT
      000000D0H.6 SFRSYM    DATA     BIT       PSW_AC
      000000F8H   SFRSYM    DATA     BYTE      SPI0CN0
      000000B3H   SFRSYM    DATA     BYTE      HFO0CAL
      000000DEH   SFRSYM    DATA     BYTE      CS0SE
      00000088H.5 SFRSYM    DATA     BIT       TCON_TF0
      00000098H   SFRSYM    DATA     BIT       SCON0_RI
      00000082H   SFRSYM    DATA     BYTE      DPL
      00000088H.7 SFRSYM    DATA     BIT       TCON_TF1
      00000099H   SFRSYM    DATA     BYTE      SBUF0
      00000087H   SFRSYM    DATA     BYTE      PCON0
      000000B9H   SFRSYM    DATA     BYTE      IREF0CF
      000000C3H   SFRSYM    DATA     BYTE      ADC0GTL
      000000C8H.6 SFRSYM    DATA     BIT       TMR2CN0_TF2L
      00000098H.1 SFRSYM    DATA     BIT       SCON0_TI
      000000E8H   SFRSYM    DATA     BIT       ADC0CN0_ADCM0
      000000C6H   SFRSYM    DATA     BYTE      ADC0LTH
      00000088H   SFRSYM    DATA     BIT       TCON_IT0
      000000B0H.1 SFRSYM    DATA     BIT       CS0CN0_CSPME
      000000E8H.1 SFRSYM    DATA     BIT       ADC0CN0_ADCM1
      000000EFH   SFRSYM    DATA     BYTE      RSTSRC
LX51 LINKER/LOCATER V4.66.30.0                                                        03/07/2020  14:55:04  PAGE 40


      000000D7H   SFRSYM    DATA     BYTE      P0MAT
      00000086H   SFRSYM    DATA     BYTE      CRC0DAT
      00000088H.2 SFRSYM    DATA     BIT       TCON_IT1
      000000E8H.2 SFRSYM    DATA     BIT       ADC0CN0_ADCM2
      00000098H   SFRSYM    DATA     BYTE      SCON0
      000000CFH   SFRSYM    DATA     BYTE      P1MAT
      000000DEH   SFRSYM    DATA     BYTE      CS0PM
      000000E8H.3 SFRSYM    DATA     BIT       ADC0CN0_ADWINT
      000000E8H.4 SFRSYM    DATA     BIT       ADC0CN0_ADBUSY
      000000F5H   SFRSYM    DATA     BYTE      SMB0ADM
      000000C5H   SFRSYM    DATA     BYTE      ADC0LTL
      000000F8H.5 SFRSYM    DATA     BIT       SPI0CN0_MODF
      000000B8H.6 SFRSYM    DATA     BIT       IP_PSPI0
      000000B0H.6 SFRSYM    DATA     BIT       CS0CN0_CSEOS
      000000C8H   SFRSYM    DATA     BYTE      TMR2CN0
      00000091H   SFRSYM    DATA     BYTE      TMR3CN0
      000000F4H   SFRSYM    DATA     BYTE      SMB0ADR
      00000088H.4 SFRSYM    DATA     BIT       TCON_TR0
      000000B0H.5 SFRSYM    DATA     BIT       CS0CN0_CSINT
      000000ABH   SFRSYM    DATA     BYTE      CS0MX
      000000C8H.4 SFRSYM    DATA     BIT       TMR2CN0_TF2CEN
      00000088H.6 SFRSYM    DATA     BIT       TCON_TR1
      000000C2H   SFRSYM    DATA     BYTE      SMB0DAT
      00000099H   SFRSYM    DATA     BYTE      P0DRV
      000000DDH   SFRSYM    DATA     BYTE      CS0SS
      000000CDH   SFRSYM    DATA     BYTE      TMR2H
      000000A1H   SFRSYM    DATA     BYTE      SPI0CFG
      0000009BH   SFRSYM    DATA     BYTE      P1DRV
      00000095H   SFRSYM    DATA     BYTE      TMR3H
      0000009DH   SFRSYM    DATA     BYTE      P2DRV
      0000009AH   SFRSYM    DATA     BYTE      CRC0CNT
      000000CCH   SFRSYM    DATA     BYTE      TMR2L
      000000ACH   SFRSYM    DATA     BYTE      RTC0ADR
      000000F8H.7 SFRSYM    DATA     BIT       SPI0CN0_SPIF
      00000094H   SFRSYM    DATA     BYTE      TMR3L
      000000BBH   SFRSYM    DATA     BYTE      ADC0PWR
      000000A8H.7 SFRSYM    DATA     BIT       IE_EA
      000000ADH   SFRSYM    DATA     BYTE      RTC0DAT
      000000B0H.3 SFRSYM    DATA     BIT       CS0CN0_CSCMPEN
      000000B6H   SFRSYM    DATA     BYTE      FLSCL
      000000C8H.5 SFRSYM    DATA     BIT       TMR2CN0_TF2LEN
      000000F8H.6 SFRSYM    DATA     BIT       SPI0CN0_WCOL
      000000F8H.2 SFRSYM    DATA     BIT       SPI0CN0_NSSMD0
      000000D0H.7 SFRSYM    DATA     BIT       PSW_CY
      000000A3H   SFRSYM    DATA     BYTE      SPI0DAT
      000000F8H.3 SFRSYM    DATA     BIT       SPI0CN0_NSSMD1
      000000BDH   SFRSYM    DATA     WORD      ADC0
      0000008EH   SFRSYM    DATA     BYTE      TOFFH
      000000D0H   SFRSYM    DATA     BYTE      PSW
      000000DFH   SFRSYM    DATA     BYTE      PCA0PWM
      000000E2H   SFRSYM    DATA     BYTE      REVID
      0000008DH   SFRSYM    DATA     BYTE      TOFFL
      000000B7H   SFRSYM    DATA     BYTE      FLKEY
      000000BAH   SFRSYM    DATA     BYTE      ADC0AC
      00000007H   SYMBOL    DATA     BYTE      reg
      00000007H   SYMBOL    DATA     BYTE      reg
      00000005H   SYMBOL    DATA     BYTE      value
      00000004H   SYMBOL    DATA     DWORD     alarm
      00000004H   SYMBOL    DATA     DWORD     time
      00000007H   SYMBOL    DATA     BYTE      bits
      00000007H   SYMBOL    DATA     BYTE      bits

LX51 LINKER/LOCATER V4.66.30.0                                                        03/07/2020  14:55:04  PAGE 41


      ---         MODULE    ---      ---       POWER
      000000A2H   SFRSYM    DATA     BYTE      SPI0CKR
      00000080H   SFRSYM    DATA     BYTE      P0
      000000D0H.2 SFRSYM    DATA     BIT       PSW_OV
      000000B1H   SFRSYM    DATA     BYTE      XOSC0CN
      00000090H   SFRSYM    DATA     BYTE      P1
      000000A0H   SFRSYM    DATA     BYTE      P2
      00000097H   SFRSYM    DATA     BYTE      ADC0CF
      000000C0H.7 SFRSYM    DATA     BIT       SMB0CN0_MASTER
      000000F9H   SFRSYM    DATA     WORD      PCA0
      000000AEH   SFRSYM    DATA     BYTE      RTC0KEY
      000000E6H   SFRSYM    DATA     BYTE      EIE1
      000000C0H.1 SFRSYM    DATA     BIT       SMB0CN0_ACK
      000000E7H   SFRSYM    DATA     BYTE      EIE2
      0000008FH   SFRSYM    DATA     BYTE      PSCTL
      000000E4H   SFRSYM    DATA     BYTE      IT01CF
      000000B0H   SFRSYM    DATA     BYTE      CS0CN0
      000000C0H.6 SFRSYM    DATA     BIT       SMB0CN0_TXMODE
      000000E3H   SFRSYM    DATA     BYTE      DERIVID
      000000AFH   SFRSYM    DATA     BYTE      CS0MD1
      000000A7H   SFRSYM    DATA     BYTE      SFRPAGE
      000000F3H   SFRSYM    DATA     BYTE      CS0MD2
      000000A4H   SFRSYM    DATA     BYTE      P0MDOUT
      000000F3H   SFRSYM    DATA     BYTE      CS0MD3
      000000A5H   SFRSYM    DATA     BYTE      P1MDOUT
      000000E8H.5 SFRSYM    DATA     BIT       ADC0CN0_ADINT
      000000CBH   SFRSYM    DATA     BYTE      TMR2RLH
      000000A6H   SFRSYM    DATA     BYTE      P2MDOUT
      000000A8H   SFRSYM    DATA     BYTE      IE
      00000093H   SFRSYM    DATA     BYTE      TMR3RLH
      000000F6H   SFRSYM    DATA     BYTE      EIP1
      000000F7H   SFRSYM    DATA     BYTE      EIP2
      00000098H.2 SFRSYM    DATA     BIT       SCON0_RB8
      000000CAH   SFRSYM    DATA     BYTE      TMR2RLL
      000000FCH   SFRSYM    DATA     BYTE      PCA0CPH0
      00000092H   SFRSYM    DATA     BYTE      TMR3RLL
      000000EAH   SFRSYM    DATA     BYTE      PCA0CPH1
      00000098H.3 SFRSYM    DATA     BIT       SCON0_TB8
      000000B0H.7 SFRSYM    DATA     BIT       CS0CN0_CSEN
      000000F0H   SFRSYM    DATA     BIT       B_B0
      00000082H   SFRSYM    DATA     WORD      DP
      000000ECH   SFRSYM    DATA     BYTE      PCA0CPH2
      000000F0H.1 SFRSYM    DATA     BIT       B_B1
      000000C3H   SFRSYM    DATA     WORD      ADC0GT
      000000F0H.2 SFRSYM    DATA     BIT       B_B2
      000000FBH   SFRSYM    DATA     BYTE      PCA0CPL0
      000000F0H.3 SFRSYM    DATA     BIT       B_B3
      000000D9H   SFRSYM    DATA     BYTE      PCA0MD
      000000DAH   SFRSYM    DATA     BYTE      PCA0CPM0
      000000E9H   SFRSYM    DATA     BYTE      PCA0CPL1
      000000F0H.4 SFRSYM    DATA     BIT       B_B4
      000000DBH   SFRSYM    DATA     BYTE      PCA0CPM1
      000000EBH   SFRSYM    DATA     BYTE      PCA0CPL2
      000000F0H.5 SFRSYM    DATA     BIT       B_B5
      000000DCH   SFRSYM    DATA     BYTE      PCA0CPM2
      000000B8H   SFRSYM    DATA     BYTE      IP
      000000BCH   SFRSYM    DATA     BYTE      ADC0TK
      000000F0H.6 SFRSYM    DATA     BIT       B_B6
      000000C5H   SFRSYM    DATA     WORD      ADC0LT
      000000D6H   SFRSYM    DATA     BYTE      IREF0CN0
      00000098H.5 SFRSYM    DATA     BIT       SCON0_MCE
      000000F0H.7 SFRSYM    DATA     BIT       B_B7
LX51 LINKER/LOCATER V4.66.30.0                                                        03/07/2020  14:55:04  PAGE 42


      000000E1H   SFRSYM    DATA     BYTE      XBR0
      000000C1H   SFRSYM    DATA     BYTE      SMB0CF
      000000E2H   SFRSYM    DATA     BYTE      XBR1
      000000D2H   SFRSYM    DATA     BYTE      CS0SCAN0
      000000C0H.5 SFRSYM    DATA     BIT       SMB0CN0_STA
      000000E3H   SFRSYM    DATA     BYTE      XBR2
      000000D3H   SFRSYM    DATA     BYTE      CS0SCAN1
      00000096H   SFRSYM    DATA     BYTE      ADC0MX
      000000E0H   SFRSYM    DATA     BIT       ACC_ACC0
      000000D1H   SFRSYM    DATA     BYTE      REF0CN
      000000B2H   SFRSYM    DATA     BYTE      HFO0CN
      0000008EH   SFRSYM    DATA     BYTE      CKCON0
      000000E0H.1 SFRSYM    DATA     BIT       ACC_ACC1
      000000C9H   SFRSYM    DATA     BYTE      REG0CN
      00000085H   SFRSYM    DATA     BYTE      CRC0IN
      000000C8H.2 SFRSYM    DATA     BIT       TMR2CN0_TR2
      000000E0H.2 SFRSYM    DATA     BIT       ACC_ACC2
      000000E0H.3 SFRSYM    DATA     BIT       ACC_ACC3
      00000081H   SFRSYM    DATA     BYTE      SP
      0000009DH   SFRSYM    DATA     BYTE      CMP0MD
      000000E0H.4 SFRSYM    DATA     BIT       ACC_ACC4
      000000D8H   SFRSYM    DATA     BIT       PCA0CN0_CCF0
      000000E0H.5 SFRSYM    DATA     BIT       ACC_ACC5
      000000D8H.1 SFRSYM    DATA     BIT       PCA0CN0_CCF1
      000000E0H.6 SFRSYM    DATA     BIT       ACC_ACC6
      000000CCH   SFRSYM    DATA     WORD      TMR2
      000000D8H.2 SFRSYM    DATA     BIT       PCA0CN0_CCF2
      000000E0H.7 SFRSYM    DATA     BIT       ACC_ACC7
      00000094H   SFRSYM    DATA     WORD      TMR3
      000000B0H   SFRSYM    DATA     BIT       CS0CN0_CSCMPF
      000000C0H.3 SFRSYM    DATA     BIT       SMB0CN0_ACKRQ
      000000FFH   SFRSYM    DATA     BYTE      VDM0CN
      000000F1H   SFRSYM    DATA     BYTE      P0MDIN
      00000098H.4 SFRSYM    DATA     BIT       SCON0_REN
      000000F2H   SFRSYM    DATA     BYTE      P1MDIN
      000000FEH   SFRSYM    DATA     BYTE      CS0THH
      000000C0H.4 SFRSYM    DATA     BIT       SMB0CN0_STO
      000000B5H   SFRSYM    DATA     BYTE      PMU0CF
      000000C7H   SFRSYM    DATA     BYTE      P0MASK
      000000BFH   SFRSYM    DATA     BYTE      P1MASK
      000000FDH   SFRSYM    DATA     BYTE      CS0THL
      000000D0H.3 SFRSYM    DATA     BIT       PSW_RS0
      000000D8H.7 SFRSYM    DATA     BIT       PCA0CN0_CF
      000000F8H.4 SFRSYM    DATA     BIT       SPI0CN0_RXOVRN
      000000D0H.4 SFRSYM    DATA     BIT       PSW_RS1
      000000C8H   SFRSYM    DATA     BIT       TMR2CN0_T2XCLK0
      000000C8H.1 SFRSYM    DATA     BIT       TMR2CN0_T2XCLK1
      000000E8H.7 SFRSYM    DATA     BIT       ADC0CN0_ADEN
      00000089H   SFRSYM    DATA     BYTE      TMOD
      00000088H   SFRSYM    DATA     BYTE      TCON
      000000B5H   SFRSYM    DATA     BYTE      PMU0MD
      000000CEH   SFRSYM    DATA     BYTE      PMU0FL
      0000009CH   SFRSYM    DATA     BYTE      CRC0FLIP
      000000D0H   SFRSYM    DATA     BIT       PSW_PARITY
      000000A8H.4 SFRSYM    DATA     BIT       IE_ES0
      0000009FH   SFRSYM    DATA     BYTE      CMP0MX
      000000A8H.1 SFRSYM    DATA     BIT       IE_ET0
      000000A8H.3 SFRSYM    DATA     BIT       IE_ET1
      000000D4H   SFRSYM    DATA     BYTE      P0SKIP
      000000A8H.5 SFRSYM    DATA     BIT       IE_ET2
      000000D5H   SFRSYM    DATA     BYTE      P1SKIP
      000000E8H   SFRSYM    DATA     BYTE      ADC0CN0
LX51 LINKER/LOCATER V4.66.30.0                                                        03/07/2020  14:55:04  PAGE 43


      000000A8H   SFRSYM    DATA     BIT       IE_EX0
      000000D8H.6 SFRSYM    DATA     BIT       PCA0CN0_CR
      000000A8H.2 SFRSYM    DATA     BIT       IE_EX1
      00000098H.7 SFRSYM    DATA     BIT       SCON0_SMODE
      000000A9H   SFRSYM    DATA     BYTE      CLKSEL
      000000F8H   SFRSYM    DATA     BIT       SPI0CN0_SPIEN
      000000F0H   SFRSYM    DATA     BYTE      B
      000000BEH   SFRSYM    DATA     BYTE      ADC0H
      0000009EH   SFRSYM    DATA     BYTE      CRC0AUTO
      000000B0H.4 SFRSYM    DATA     BIT       CS0CN0_CSBUSY
      000000E8H.6 SFRSYM    DATA     BIT       ADC0CN0_ADBMEN
      000000CAH   SFRSYM    DATA     WORD      TMR2RL
      000000BDH   SFRSYM    DATA     BYTE      ADC0L
      00000092H   SFRSYM    DATA     WORD      TMR3RL
      000000D8H   SFRSYM    DATA     BYTE      PCA0CN0
      000000E0H   SFRSYM    DATA     BYTE      ACC
      000000FBH   SFRSYM    DATA     WORD      PCA0CP0
      000000E9H   SFRSYM    DATA     WORD      PCA0CP1
      000000EBH   SFRSYM    DATA     WORD      PCA0CP2
      00000084H   SFRSYM    DATA     BYTE      CRC0CN0
      0000008CH   SFRSYM    DATA     BYTE      TH0
      000000B8H.4 SFRSYM    DATA     BIT       IP_PS0
      0000008DH   SFRSYM    DATA     BYTE      TH1
      000000FAH   SFRSYM    DATA     BYTE      PCA0H
      000000B8H.1 SFRSYM    DATA     BIT       IP_PT0
      000000B8H.3 SFRSYM    DATA     BIT       IP_PT1
      000000C0H.2 SFRSYM    DATA     BIT       SMB0CN0_ARBLOST
      000000B8H.5 SFRSYM    DATA     BIT       IP_PT2
      0000008AH   SFRSYM    DATA     BYTE      TL0
      000000AAH   SFRSYM    DATA     BYTE      CS0CF
      000000F8H.1 SFRSYM    DATA     BIT       SPI0CN0_TXBMT
      000000D0H.5 SFRSYM    DATA     BIT       PSW_F0
      000000A8H.6 SFRSYM    DATA     BIT       IE_ESPI0
      0000008BH   SFRSYM    DATA     BYTE      TL1
      000000F9H   SFRSYM    DATA     BYTE      PCA0L
      000000C0H   SFRSYM    DATA     BIT       SMB0CN0_SI
      000000D0H.1 SFRSYM    DATA     BIT       PSW_F1
      00000080H   SFRSYM    DATA     BIT       P0_B0
      000000B8H   SFRSYM    DATA     BIT       IP_PX0
      00000090H   SFRSYM    DATA     BIT       P1_B0
      00000080H.1 SFRSYM    DATA     BIT       P0_B1
      000000B8H.2 SFRSYM    DATA     BIT       IP_PX1
      000000EEH   SFRSYM    DATA     BYTE      CS0DH
      0000009BH   SFRSYM    DATA     BYTE      CMP0CN0
      00000088H.1 SFRSYM    DATA     BIT       TCON_IE0
      00000090H.1 SFRSYM    DATA     BIT       P1_B1
      00000080H.2 SFRSYM    DATA     BIT       P0_B2
      00000088H.3 SFRSYM    DATA     BIT       TCON_IE1
      00000090H.2 SFRSYM    DATA     BIT       P1_B2
      00000080H.3 SFRSYM    DATA     BIT       P0_B3
      000000C0H   SFRSYM    DATA     BYTE      SMB0CN0
      00000090H.3 SFRSYM    DATA     BIT       P1_B3
      00000080H.4 SFRSYM    DATA     BIT       P0_B4
      00000090H.4 SFRSYM    DATA     BIT       P1_B4
      00000080H.5 SFRSYM    DATA     BIT       P0_B5
      000000EDH   SFRSYM    DATA     BYTE      CS0DL
      00000090H.5 SFRSYM    DATA     BIT       P1_B5
      00000080H.6 SFRSYM    DATA     BIT       P0_B6
      00000090H.6 SFRSYM    DATA     BIT       P1_B6
      00000080H.7 SFRSYM    DATA     BIT       P0_B7
      00000090H.7 SFRSYM    DATA     BIT       P1_B7
      000000A0H.7 SFRSYM    DATA     BIT       P2_B7
LX51 LINKER/LOCATER V4.66.30.0                                                        03/07/2020  14:55:04  PAGE 44


      00000083H   SFRSYM    DATA     BYTE      DPH
      000000C4H   SFRSYM    DATA     BYTE      ADC0GTH
      000000C8H.7 SFRSYM    DATA     BIT       TMR2CN0_TF2H
      000000C8H.3 SFRSYM    DATA     BIT       TMR2CN0_T2SPLIT
      000000D0H.6 SFRSYM    DATA     BIT       PSW_AC
      000000F8H   SFRSYM    DATA     BYTE      SPI0CN0
      000000B3H   SFRSYM    DATA     BYTE      HFO0CAL
      000000DEH   SFRSYM    DATA     BYTE      CS0SE
      00000088H.5 SFRSYM    DATA     BIT       TCON_TF0
      00000098H   SFRSYM    DATA     BIT       SCON0_RI
      00000082H   SFRSYM    DATA     BYTE      DPL
      00000088H.7 SFRSYM    DATA     BIT       TCON_TF1
      00000099H   SFRSYM    DATA     BYTE      SBUF0
      00000087H   SFRSYM    DATA     BYTE      PCON0
      000000B9H   SFRSYM    DATA     BYTE      IREF0CF
      000000C3H   SFRSYM    DATA     BYTE      ADC0GTL
      000000C8H.6 SFRSYM    DATA     BIT       TMR2CN0_TF2L
      00000098H.1 SFRSYM    DATA     BIT       SCON0_TI
      000000E8H   SFRSYM    DATA     BIT       ADC0CN0_ADCM0
      000000C6H   SFRSYM    DATA     BYTE      ADC0LTH
      00000088H   SFRSYM    DATA     BIT       TCON_IT0
      000000B0H.1 SFRSYM    DATA     BIT       CS0CN0_CSPME
      000000E8H.1 SFRSYM    DATA     BIT       ADC0CN0_ADCM1
      000000EFH   SFRSYM    DATA     BYTE      RSTSRC
      000000D7H   SFRSYM    DATA     BYTE      P0MAT
      00000086H   SFRSYM    DATA     BYTE      CRC0DAT
      00000088H.2 SFRSYM    DATA     BIT       TCON_IT1
      000000E8H.2 SFRSYM    DATA     BIT       ADC0CN0_ADCM2
      00000098H   SFRSYM    DATA     BYTE      SCON0
      000000CFH   SFRSYM    DATA     BYTE      P1MAT
      000000DEH   SFRSYM    DATA     BYTE      CS0PM
      000000E8H.3 SFRSYM    DATA     BIT       ADC0CN0_ADWINT
      000000E8H.4 SFRSYM    DATA     BIT       ADC0CN0_ADBUSY
      000000F5H   SFRSYM    DATA     BYTE      SMB0ADM
      000000C5H   SFRSYM    DATA     BYTE      ADC0LTL
      000000F8H.5 SFRSYM    DATA     BIT       SPI0CN0_MODF
      000000B8H.6 SFRSYM    DATA     BIT       IP_PSPI0
      000000B0H.6 SFRSYM    DATA     BIT       CS0CN0_CSEOS
      000000C8H   SFRSYM    DATA     BYTE      TMR2CN0
      00000091H   SFRSYM    DATA     BYTE      TMR3CN0
      000000F4H   SFRSYM    DATA     BYTE      SMB0ADR
      00000088H.4 SFRSYM    DATA     BIT       TCON_TR0
      000000B0H.5 SFRSYM    DATA     BIT       CS0CN0_CSINT
      000000ABH   SFRSYM    DATA     BYTE      CS0MX
      000000C8H.4 SFRSYM    DATA     BIT       TMR2CN0_TF2CEN
      00000088H.6 SFRSYM    DATA     BIT       TCON_TR1
      000000C2H   SFRSYM    DATA     BYTE      SMB0DAT
      00000099H   SFRSYM    DATA     BYTE      P0DRV
      000000DDH   SFRSYM    DATA     BYTE      CS0SS
      000000CDH   SFRSYM    DATA     BYTE      TMR2H
      000000A1H   SFRSYM    DATA     BYTE      SPI0CFG
      0000009BH   SFRSYM    DATA     BYTE      P1DRV
      00000095H   SFRSYM    DATA     BYTE      TMR3H
      0000009DH   SFRSYM    DATA     BYTE      P2DRV
      0000009AH   SFRSYM    DATA     BYTE      CRC0CNT
      000000CCH   SFRSYM    DATA     BYTE      TMR2L
      000000ACH   SFRSYM    DATA     BYTE      RTC0ADR
      000000F8H.7 SFRSYM    DATA     BIT       SPI0CN0_SPIF
      00000094H   SFRSYM    DATA     BYTE      TMR3L
      000000BBH   SFRSYM    DATA     BYTE      ADC0PWR
      000000A8H.7 SFRSYM    DATA     BIT       IE_EA
      000000ADH   SFRSYM    DATA     BYTE      RTC0DAT
LX51 LINKER/LOCATER V4.66.30.0                                                        03/07/2020  14:55:04  PAGE 45


      000000B0H.3 SFRSYM    DATA     BIT       CS0CN0_CSCMPEN
      000000B6H   SFRSYM    DATA     BYTE      FLSCL
      000000C8H.5 SFRSYM    DATA     BIT       TMR2CN0_TF2LEN
      000000F8H.6 SFRSYM    DATA     BIT       SPI0CN0_WCOL
      000000F8H.2 SFRSYM    DATA     BIT       SPI0CN0_NSSMD0
      000000D0H.7 SFRSYM    DATA     BIT       PSW_CY
      000000A3H   SFRSYM    DATA     BYTE      SPI0DAT
      000000F8H.3 SFRSYM    DATA     BIT       SPI0CN0_NSSMD1
      000000BDH   SFRSYM    DATA     WORD      ADC0
      0000008EH   SFRSYM    DATA     BYTE      TOFFH
      000000D0H   SFRSYM    DATA     BYTE      PSW
      000000DFH   SFRSYM    DATA     BYTE      PCA0PWM
      000000E2H   SFRSYM    DATA     BYTE      REVID
      0000008DH   SFRSYM    DATA     BYTE      TOFFL
      000000B7H   SFRSYM    DATA     BYTE      FLKEY
      000000BAH   SFRSYM    DATA     BYTE      ADC0AC

      ---         MODULE    ---      ---       ?C?FPADD
      0100005DH   PUBLIC    CODE     ---       ?C?FPADD
      01000059H   PUBLIC    CODE     ---       ?C?FPSUB

      ---         MODULE    ---      ---       ?C?FPMUL
      0100014EH   PUBLIC    CODE     ---       ?C?FPMUL

      ---         MODULE    ---      ---       ?C?FCAST
      0100025EH   PUBLIC    CODE     ---       ?C?FCASTC
      01000259H   PUBLIC    CODE     ---       ?C?FCASTI
      01000254H   PUBLIC    CODE     ---       ?C?FCASTL

      ---         MODULE    ---      ---       ?C?CASTF
      01000292H   PUBLIC    CODE     ---       ?C?CASTF

      ---         MODULE    ---      ---       ?C?FPGETOPN
      010002C9H   PUBLIC    CODE     ---       ?C?FPGETOPN2
      010002FEH   PUBLIC    CODE     ---       ?C?FPNANRESULT
      01000308H   PUBLIC    CODE     ---       ?C?FPOVERFLOW
      010002E0H   PUBLIC    CODE     ---       ?C?FPRESULT
      010002F4H   PUBLIC    CODE     ---       ?C?FPRESULT2
      01000305H   PUBLIC    CODE     ---       ?C?FPUNDERFLOW

      ---         MODULE    ---      ---       ?C?COPY
      010003E3H   PUBLIC    CODE     ---       ?C?COPY

      ---         MODULE    ---      ---       ?C?CLDPTR
      01000409H   PUBLIC    CODE     ---       ?C?CLDPTR

      ---         MODULE    ---      ---       ?C?CLDOPTR
      01000422H   PUBLIC    CODE     ---       ?C?CLDOPTR

      ---         MODULE    ---      ---       ?C?CSTPTR
      0100044FH   PUBLIC    CODE     ---       ?C?CSTPTR

      ---         MODULE    ---      ---       ?C?CSTOPTR
      01000461H   PUBLIC    CODE     ---       ?C?CSTOPTR

      ---         MODULE    ---      ---       ?C?IMUL
      01000483H   PUBLIC    CODE     ---       ?C?IMUL

      ---         MODULE    ---      ---       ?C?UIDIV
      01000495H   PUBLIC    CODE     ---       ?C?UIDIV

      ---         MODULE    ---      ---       ?C?LNEG
LX51 LINKER/LOCATER V4.66.30.0                                                        03/07/2020  14:55:04  PAGE 46


      010004EAH   PUBLIC    CODE     ---       ?C?LNEG

      ---         MODULE    ---      ---       ?C?SLCMP
      010004F8H   PUBLIC    CODE     ---       ?C?SLCMP

      ---         MODULE    ---      ---       ?C?CCASE
      0100050EH   PUBLIC    CODE     ---       ?C?CCASE

Program Size: data=72.0 xdata=1 const=0 code=3258
LX51 RUN COMPLETE.  0 WARNING(S),  0 ERROR(S)
